
led_counter.elf:     file format elf32-littlenios2
led_counter.elf
architecture: nios2:r1, flags 0x00000112:
EXEC_P, HAS_SYMS, D_PAGED
start address 0x01000244

Program Header:
    LOAD off    0x00001000 vaddr 0x01000000 paddr 0x01000000 align 2**12
         filesz 0x00000020 memsz 0x00000020 flags r-x
    LOAD off    0x00001020 vaddr 0x01000020 paddr 0x01000020 align 2**12
         filesz 0x00010028 memsz 0x00010028 flags r-x
    LOAD off    0x00011048 vaddr 0x01010048 paddr 0x01011b34 align 2**12
         filesz 0x00001aec memsz 0x00001aec flags rw-
    LOAD off    0x00013620 vaddr 0x01013620 paddr 0x01013620 align 2**12
         filesz 0x00000000 memsz 0x00070964 flags rw-

Sections:
Idx Name          Size      VMA       LMA       File off  Algn
  0 .entry        00000020  01000000  01000000  00001000  2**5
                  CONTENTS, ALLOC, LOAD, READONLY, CODE
  1 .exceptions   00000224  01000020  01000020  00001020  2**2
                  CONTENTS, ALLOC, LOAD, READONLY, CODE
  2 .text         0000fac4  01000244  01000244  00001244  2**2
                  CONTENTS, ALLOC, LOAD, READONLY, CODE
  3 .rodata       00000340  0100fd08  0100fd08  00010d08  2**2
                  CONTENTS, ALLOC, LOAD, READONLY, DATA
  4 .rwdata       00001aec  01010048  01011b34  00011048  2**2
                  CONTENTS, ALLOC, LOAD, DATA, SMALL_DATA
  5 .bss          00070a0e  01013620  01013620  00013620  2**2
                  ALLOC, SMALL_DATA
  6 .SDRAM_controller 00000000  01083f84  01083f84  00012b34  2**0
                  CONTENTS
  7 .comment      00000023  00000000  00000000  00012b34  2**0
                  CONTENTS, READONLY
  8 .debug_aranges 00000eb8  00000000  00000000  00012b58  2**3
                  CONTENTS, READONLY, DEBUGGING
  9 .debug_info   000237c0  00000000  00000000  00013a10  2**0
                  CONTENTS, READONLY, DEBUGGING
 10 .debug_abbrev 000090e7  00000000  00000000  000371d0  2**0
                  CONTENTS, READONLY, DEBUGGING
 11 .debug_line   0000b64b  00000000  00000000  000402b7  2**0
                  CONTENTS, READONLY, DEBUGGING
 12 .debug_frame  0000219c  00000000  00000000  0004b904  2**2
                  CONTENTS, READONLY, DEBUGGING
 13 .debug_str    00003815  00000000  00000000  0004daa0  2**0
                  CONTENTS, READONLY, DEBUGGING
 14 .debug_loc    00017868  00000000  00000000  000512b5  2**0
                  CONTENTS, READONLY, DEBUGGING
 15 .debug_alt_sim_info 00000030  00000000  00000000  00068b20  2**2
                  CONTENTS, READONLY, DEBUGGING
 16 .debug_ranges 000018c0  00000000  00000000  00068b50  2**3
                  CONTENTS, READONLY, DEBUGGING
 17 .thread_model 00000003  00000000  00000000  0006d62e  2**0
                  CONTENTS, READONLY
 18 .cpu          00000003  00000000  00000000  0006d631  2**0
                  CONTENTS, READONLY
 19 .qsys         00000001  00000000  00000000  0006d634  2**0
                  CONTENTS, READONLY
 20 .simulation_enabled 00000001  00000000  00000000  0006d635  2**0
                  CONTENTS, READONLY
 21 .sysid_hash   00000004  00000000  00000000  0006d636  2**0
                  CONTENTS, READONLY
 22 .sysid_base   00000004  00000000  00000000  0006d63a  2**0
                  CONTENTS, READONLY
 23 .sysid_time   00000004  00000000  00000000  0006d63e  2**0
                  CONTENTS, READONLY
 24 .stderr_dev   00000009  00000000  00000000  0006d642  2**0
                  CONTENTS, READONLY
 25 .stdin_dev    00000009  00000000  00000000  0006d64b  2**0
                  CONTENTS, READONLY
 26 .stdout_dev   00000009  00000000  00000000  0006d654  2**0
                  CONTENTS, READONLY
 27 .sopc_system_name 0000000d  00000000  00000000  0006d65d  2**0
                  CONTENTS, READONLY
 28 .quartus_project_dir 00000026  00000000  00000000  0006d66a  2**0
                  CONTENTS, READONLY
 29 .jdi          000065b9  00000000  00000000  0006d690  2**0
                  CONTENTS, READONLY
 30 .sopcinfo     000597a6  00000000  00000000  00073c49  2**0
                  CONTENTS, READONLY
SYMBOL TABLE:
01000000 l    d  .entry	00000000 .entry
01000020 l    d  .exceptions	00000000 .exceptions
01000244 l    d  .text	00000000 .text
0100fd08 l    d  .rodata	00000000 .rodata
01010048 l    d  .rwdata	00000000 .rwdata
01013620 l    d  .bss	00000000 .bss
01083f84 l    d  .SDRAM_controller	00000000 .SDRAM_controller
00000000 l    d  .comment	00000000 .comment
00000000 l    d  .debug_aranges	00000000 .debug_aranges
00000000 l    d  .debug_info	00000000 .debug_info
00000000 l    d  .debug_abbrev	00000000 .debug_abbrev
00000000 l    d  .debug_line	00000000 .debug_line
00000000 l    d  .debug_frame	00000000 .debug_frame
00000000 l    d  .debug_str	00000000 .debug_str
00000000 l    d  .debug_loc	00000000 .debug_loc
00000000 l    d  .debug_alt_sim_info	00000000 .debug_alt_sim_info
00000000 l    d  .debug_ranges	00000000 .debug_ranges
00000000 l    df *ABS*	00000000 ../led_controller_bsp//obj/HAL/src/crt0.o
0100028c l       .text	00000000 alt_after_alt_main
00000000 l    df *ABS*	00000000 alt_irq_handler.c
00000000 l    df *ABS*	00000000 alt_instruction_exception_entry.c
00000000 l    df *ABS*	00000000 counter.c
00000000 l    df *ABS*	00000000 printf.c
00000000 l    df *ABS*	00000000 puts.c
00000000 l    df *ABS*	00000000 strlen.c
00000000 l    df *ABS*	00000000 vfprintf.c
0100fd96 l     O .rodata	00000010 zeroes.4404
01002fb0 l     F .text	000000bc __sbprintf
0100fda6 l     O .rodata	00000010 blanks.4403
00000000 l    df *ABS*	00000000 wsetup.c
00000000 l    df *ABS*	00000000 dtoa.c
010031c0 l     F .text	00000200 quorem
00000000 l    df *ABS*	00000000 fflush.c
00000000 l    df *ABS*	00000000 findfp.c
01004cf0 l     F .text	00000008 __fp_unlock
01004d04 l     F .text	0000019c __sinit.part.1
01004ea0 l     F .text	00000008 __fp_lock
00000000 l    df *ABS*	00000000 mallocr.c
00000000 l    df *ABS*	00000000 fvwrite.c
00000000 l    df *ABS*	00000000 fwalk.c
00000000 l    df *ABS*	00000000 impure.c
01010048 l     O .rwdata	00000424 impure_data
00000000 l    df *ABS*	00000000 locale.c
0101048c l     O .rwdata	00000020 lc_ctype_charset
0101046c l     O .rwdata	00000020 lc_message_charset
010104ac l     O .rwdata	00000038 lconv
00000000 l    df *ABS*	00000000 makebuf.c
00000000 l    df *ABS*	00000000 mallocr.c
00000000 l    df *ABS*	00000000 memchr.c
00000000 l    df *ABS*	00000000 memcpy.c
00000000 l    df *ABS*	00000000 memmove.c
00000000 l    df *ABS*	00000000 memset.c
00000000 l    df *ABS*	00000000 mprec.c
0100fdd8 l     O .rodata	0000000c p05.2768
00000000 l    df *ABS*	00000000 mallocr.c
00000000 l    df *ABS*	00000000 s_fpclassify.c
00000000 l    df *ABS*	00000000 sbrkr.c
00000000 l    df *ABS*	00000000 stdio.c
00000000 l    df *ABS*	00000000 strcmp.c
00000000 l    df *ABS*	00000000 vfprintf.c
0100829c l     F .text	000000fc __sprint_r.part.0
0100ff0c l     O .rodata	00000010 blanks.4348
0100fefc l     O .rodata	00000010 zeroes.4349
01009828 l     F .text	000000bc __sbprintf
00000000 l    df *ABS*	00000000 writer.c
00000000 l    df *ABS*	00000000 closer.c
00000000 l    df *ABS*	00000000 mallocr.c
00000000 l    df *ABS*	00000000 fclose.c
00000000 l    df *ABS*	00000000 fputwc.c
00000000 l    df *ABS*	00000000 fstatr.c
00000000 l    df *ABS*	00000000 int_errno.c
00000000 l    df *ABS*	00000000 isattyr.c
00000000 l    df *ABS*	00000000 lseekr.c
00000000 l    df *ABS*	00000000 readr.c
00000000 l    df *ABS*	00000000 wbuf.c
00000000 l    df *ABS*	00000000 wcrtomb.c
00000000 l    df *ABS*	00000000 wctomb_r.c
00000000 l    df *ABS*	00000000 libgcc2.c
00000000 l    df *ABS*	00000000 libgcc2.c
00000000 l    df *ABS*	00000000 lib2-divmod.c
00000000 l    df *ABS*	00000000 adddf3.c
00000000 l    df *ABS*	00000000 divdf3.c
00000000 l    df *ABS*	00000000 eqdf2.c
00000000 l    df *ABS*	00000000 gedf2.c
00000000 l    df *ABS*	00000000 ledf2.c
00000000 l    df *ABS*	00000000 muldf3.c
00000000 l    df *ABS*	00000000 subdf3.c
00000000 l    df *ABS*	00000000 fixdfsi.c
00000000 l    df *ABS*	00000000 floatsidf.c
00000000 l    df *ABS*	00000000 floatunsidf.c
00000000 l    df *ABS*	00000000 libgcc2.c
00000000 l    df *ABS*	00000000 libgcc2.c
00000000 l    df *ABS*	00000000 alt_close.c
0100d4e4 l     F .text	0000003c alt_get_errno
00000000 l    df *ABS*	00000000 alt_dev.c
0100d5f0 l     F .text	0000002c alt_dev_null_write
00000000 l    df *ABS*	00000000 alt_errno.c
00000000 l    df *ABS*	00000000 alt_fstat.c
0100d61c l     F .text	0000003c alt_get_errno
00000000 l    df *ABS*	00000000 alt_irq_register.c
00000000 l    df *ABS*	00000000 alt_irq_vars.c
00000000 l    df *ABS*	00000000 alt_isatty.c
0100d888 l     F .text	0000003c alt_get_errno
00000000 l    df *ABS*	00000000 alt_load.c
0100d968 l     F .text	00000068 alt_load_section
00000000 l    df *ABS*	00000000 alt_lseek.c
0100da54 l     F .text	0000003c alt_get_errno
00000000 l    df *ABS*	00000000 alt_main.c
00000000 l    df *ABS*	00000000 alt_malloc_lock.c
00000000 l    df *ABS*	00000000 alt_read.c
0100dc28 l     F .text	0000003c alt_get_errno
00000000 l    df *ABS*	00000000 alt_release_fd.c
00000000 l    df *ABS*	00000000 alt_sbrk.c
01011b28 l     O .rwdata	00000004 heap_end
00000000 l    df *ABS*	00000000 alt_write.c
0100de74 l     F .text	0000003c alt_get_errno
00000000 l    df *ABS*	00000000 alt_sys_init.c
0100dfa8 l     F .text	00000034 alt_dev_reg
01010a94 l     O .rwdata	00001060 jtag_uart
00000000 l    df *ABS*	00000000 altera_avalon_jtag_uart_fd.c
00000000 l    df *ABS*	00000000 altera_avalon_jtag_uart_init.c
0100e284 l     F .text	0000020c altera_avalon_jtag_uart_irq
0100e490 l     F .text	000000a0 altera_avalon_jtag_uart_timeout
00000000 l    df *ABS*	00000000 altera_avalon_jtag_uart_ioctl.c
00000000 l    df *ABS*	00000000 altera_avalon_jtag_uart_read.c
00000000 l    df *ABS*	00000000 altera_avalon_jtag_uart_write.c
00000000 l    df *ABS*	00000000 alt_alarm_start.c
00000000 l    df *ABS*	00000000 alt_dcache_flush_all.c
00000000 l    df *ABS*	00000000 alt_dev_llist_insert.c
0100ec3c l     F .text	0000003c alt_get_errno
00000000 l    df *ABS*	00000000 alt_do_ctors.c
00000000 l    df *ABS*	00000000 alt_do_dtors.c
00000000 l    df *ABS*	00000000 alt_icache_flush_all.c
00000000 l    df *ABS*	00000000 alt_iic.c
00000000 l    df *ABS*	00000000 alt_iic_isr_register.c
00000000 l    df *ABS*	00000000 alt_io_redirect.c
0100f0b0 l     F .text	000000c4 alt_open_fd
00000000 l    df *ABS*	00000000 alt_open.c
0100f1f0 l     F .text	0000003c alt_get_errno
0100f22c l     F .text	000000c4 alt_file_locked
00000000 l    df *ABS*	00000000 alt_tick.c
00000000 l    df *ABS*	00000000 altera_nios2_gen2_irq.c
00000000 l    df *ABS*	00000000 alt_find_dev.c
00000000 l    df *ABS*	00000000 alt_find_file.c
00000000 l    df *ABS*	00000000 alt_get_fd.c
00000000 l    df *ABS*	00000000 alt_icache_flush.c
00000000 l    df *ABS*	00000000 atexit.c
00000000 l    df *ABS*	00000000 exit.c
00000000 l    df *ABS*	00000000 memcmp.c
00000000 l    df *ABS*	00000000 __atexit.c
00000000 l    df *ABS*	00000000 __call_atexit.c
00000000 l    df *ABS*	00000000 alt_exit.c
01013658 g     O .bss	00000004 alt_instruction_exception_handler
01013684 g     O .bss	00025800 redPicture
010078e0 g     F .text	00000074 _mprec_log10
010079cc g     F .text	0000008c __any_on
01009dc4 g     F .text	00000054 _isatty_r
0100fde4 g     O .rodata	00000028 __mprec_tinytens
0100db64 g     F .text	0000007c alt_main
01000c30 g     F .text	000000c0 _puts_r
01083e84 g     O .bss	00000100 alt_irq
01009e18 g     F .text	00000060 _lseek_r
01011b34 g       *ABS*	00000000 __flash_rwdata_start
0100c010 g     F .text	00000088 .hidden __eqdf2
01083f84 g       *ABS*	00000000 __alt_heap_start
01000bf4 g     F .text	0000003c printf
0100a030 g     F .text	0000009c _wcrtomb_r
0100815c g     F .text	0000005c __sseek
01005040 g     F .text	00000010 __sinit
01009ed8 g     F .text	00000140 __swbuf_r
01005b08 g     F .text	0000007c _setlocale_r
01004ea8 g     F .text	00000068 __sfmoreglue
0100dc04 g     F .text	00000024 __malloc_unlock
01000290 g     F .text	00000034 LCD_Write_Command
010067d8 g     F .text	0000015c memmove
010002c4 g     F .text	00000034 LCD_Write_Data
01005028 g     F .text	00000018 _cleanup
01006a5c g     F .text	000000a8 _Balloc
0100c098 g     F .text	000000dc .hidden __gtdf2
0100f5e8 g     F .text	00000024 altera_nios2_gen2_irq_init
01000000 g     F .entry	0000001c __reset
01000020 g       *ABS*	00000000 __flash_exceptions_start
01009d68 g     F .text	0000005c _fstat_r
0101363c g     O .bss	00000004 errno
010080d8 g     F .text	00000008 __seofread
01013648 g     O .bss	00000004 alt_argv
01019af4 g       *ABS*	00000000 _gp
01010914 g     O .rwdata	00000180 alt_fd_list
0100f60c g     F .text	00000090 alt_find_dev
01006690 g     F .text	00000148 memcpy
01004cf8 g     F .text	0000000c _cleanup_r
0100d2fc g     F .text	000000dc .hidden __floatsidf
0100f174 g     F .text	0000007c alt_io_redirect
0100c174 g     F .text	000000f4 .hidden __ltdf2
0100fd08 g       *ABS*	00000000 __DTOR_END__
01000cf0 g     F .text	00000014 puts
0100f8d8 g     F .text	0000009c alt_exception_cause_generated_bad_addr
01007fbc g     F .text	00000074 __fpclassifyd
0100783c g     F .text	000000a4 __ratio
0100980c g     F .text	0000001c __vfiprintf_internal
0100e688 g     F .text	0000021c altera_avalon_jtag_uart_read
01000bc4 g     F .text	00000030 _printf_r
0100adc0 g     F .text	00000064 .hidden __udivsi3
0100d8c4 g     F .text	000000a4 isatty
0100fe34 g     O .rodata	000000c8 __mprec_tens
01005b84 g     F .text	0000000c __locale_charset
0100f848 g     F .text	00000090 alt_icache_flush
01013638 g     O .bss	00000004 __malloc_top_pad
01011afc g     O .rwdata	00000004 __mb_cur_max
01005bb4 g     F .text	0000000c _localeconv_r
01006e68 g     F .text	0000003c __i2b
010054c4 g     F .text	000004bc __sfvwrite_r
010002f8 g     F .text	00000258 init_LCD
01008030 g     F .text	00000054 _sbrk_r
01009e78 g     F .text	00000060 _read_r
01011b1c g     O .rwdata	00000004 alt_max_fd
01009a5c g     F .text	000000f0 _fclose_r
01004cc0 g     F .text	00000030 fflush
01013634 g     O .bss	00000004 __malloc_max_sbrked_mem
0100d708 g     F .text	00000180 alt_irq_register
0100ae7c g     F .text	000008ac .hidden __adddf3
010075e4 g     F .text	0000010c __b2d
0100a790 g     F .text	00000538 .hidden __umoddi3
0100da90 g     F .text	000000d4 lseek
01011af4 g     O .rwdata	00000004 _global_impure_ptr
01007a58 g     F .text	00000564 _realloc_r
01083f84 g       *ABS*	00000000 __bss_end
0100efc0 g     F .text	000000f0 alt_iic_isr_register
0100f4e0 g     F .text	00000108 alt_tick
0100a218 g     F .text	00000578 .hidden __udivdi3
01009cc4 g     F .text	00000024 _fputwc_r
0100fe0c g     O .rodata	00000028 __mprec_bigtens
01006c4c g     F .text	00000104 __s2b
0100d3d8 g     F .text	000000a8 .hidden __floatunsidf
01007324 g     F .text	00000060 __mcmp
01038e84 g     O .bss	00025800 bluePicture
01005060 g     F .text	00000018 __fp_lock_all
0100ef74 g     F .text	0000004c alt_ic_irq_enabled
0100f444 g     F .text	0000009c alt_alarm_stop
01013640 g     O .bss	00000004 alt_irq_active
01000708 g     F .text	00000340 initPictures
010000fc g     F .exceptions	000000d4 alt_irq_handler
010108ec g     O .rwdata	00000028 alt_dev_null
0100ebf4 g     F .text	00000048 alt_dcache_flush_all
01006d50 g     F .text	00000068 __hi0bits
0100d27c g     F .text	00000080 .hidden __fixdfsi
01011b34 g       *ABS*	00000000 __ram_rwdata_end
01011b14 g     O .rwdata	00000008 alt_dev_list
0100deb0 g     F .text	000000f8 write
01010048 g       *ABS*	00000000 __ram_rodata_end
0100d658 g     F .text	000000b0 fstat
0100c174 g     F .text	000000f4 .hidden __ledf2
0100709c g     F .text	00000140 __pow5mult
010083b0 g     F .text	0000145c ___vfiprintf_internal_r
0101362c g     O .bss	00000004 __nlocale_changed
0100ae24 g     F .text	00000058 .hidden __umodsi3
01083f84 g       *ABS*	00000000 end
0100e1c4 g     F .text	000000c0 altera_avalon_jtag_uart_init
010001d0 g     F .exceptions	00000074 alt_instruction_exception_entry
0100fd08 g       *ABS*	00000000 __CTOR_LIST__
02000000 g       *ABS*	00000000 __alt_stack_pointer
0100d480 g     F .text	00000064 .hidden __clzsi2
0100e8a4 g     F .text	00000224 altera_avalon_jtag_uart_write
01005050 g     F .text	00000004 __sfp_lock_acquire
010065ac g     F .text	000000e4 memchr
01000d9c g     F .text	000021f8 ___vfprintf_internal_r
010051b4 g     F .text	00000310 _free_r
01005b90 g     F .text	00000010 __locale_mb_cur_max
0100fb54 g     F .text	00000180 __call_exitprocs
01013628 g     O .bss	00000004 __mlocale_changed
01011b00 g     O .rwdata	00000004 __malloc_sbrk_base
01000244 g     F .text	0000004c _start
01013650 g     O .bss	00000004 _alt_tick_rate
010071dc g     F .text	00000148 __lshift
01013654 g     O .bss	00000004 _alt_nticks
0100dc64 g     F .text	000000fc read
0100e014 g     F .text	0000004c alt_sys_init
0100fa3c g     F .text	00000118 __register_exitproc
010005c8 g     F .text	00000098 sendPicture
01006ea4 g     F .text	000001f8 __multiply
0100e530 g     F .text	00000068 altera_avalon_jtag_uart_close
01010048 g       *ABS*	00000000 __ram_rwdata_start
0100fd08 g       *ABS*	00000000 __ram_rodata_start
0101365c g     O .bss	00000028 __malloc_current_mallinfo
010076f0 g     F .text	0000014c __d2b
0100e060 g     F .text	00000060 altera_avalon_jtag_uart_read_fd
0100f7a4 g     F .text	000000a4 alt_get_fd
01009944 g     F .text	00000054 _close_r
0100f9c0 g     F .text	0000007c memcmp
0100e120 g     F .text	00000050 altera_avalon_jtag_uart_close_fd
01083f84 g       *ABS*	00000000 __alt_stack_base
0100e170 g     F .text	00000054 altera_avalon_jtag_uart_ioctl_fd
0100306c g     F .text	00000154 __swsetup_r
0100b728 g     F .text	000008e8 .hidden __divdf3
01004f10 g     F .text	00000118 __sfp
01007954 g     F .text	00000078 __copybits
010104e4 g     O .rwdata	00000408 __malloc_av_
0100505c g     F .text	00000004 __sinit_lock_release
0100c268 g     F .text	00000718 .hidden __muldf3
01008084 g     F .text	00000054 __sread
01013620 g     O .bss	00000004 counter
0100f69c g     F .text	00000108 alt_find_file
0100ec78 g     F .text	000000a4 alt_dev_llist_insert
0100dbe0 g     F .text	00000024 __malloc_lock
0100ddc4 g     F .text	000000b0 sbrk
01004c64 g     F .text	0000005c _fflush_r
01009998 g     F .text	000000c4 _calloc_r
01013620 g       *ABS*	00000000 __bss_start
01006934 g     F .text	00000128 memset
01000ad8 g     F .text	000000ec main
0101364c g     O .bss	00000004 alt_envp
01013630 g     O .bss	00000004 __malloc_max_total_mem
0100e0c0 g     F .text	00000060 altera_avalon_jtag_uart_write_fd
0100a018 g     F .text	00000018 __swbuf
010081b8 g     F .text	00000008 __sclose
02000000 g       *ABS*	00000000 __alt_heap_limit
01009b4c g     F .text	00000014 fclose
010033c0 g     F .text	00001688 _dtoa_r
01005da0 g     F .text	0000080c _malloc_r
0100a18c g     F .text	00000030 __ascii_wctomb
01011b20 g     O .rwdata	00000004 alt_errno
01005980 g     F .text	000000c4 _fwalk
01000550 g     F .text	00000078 sendPixel
0100acc8 g     F .text	00000084 .hidden __divsi3
0105e684 g     O .bss	00025800 greenPicture
01005090 g     F .text	00000124 _malloc_trim_r
0100fd08 g       *ABS*	00000000 __CTOR_END__
01000a48 g     F .text	00000090 sendPictureTab
010081c0 g     F .text	000000dc strcmp
0100fd08 g       *ABS*	00000000 __flash_rodata_start
0100fd08 g       *ABS*	00000000 __DTOR_LIST__
010006a4 g     F .text	00000064 RGBtoBGR
0100c010 g     F .text	00000088 .hidden __nedf2
01000000 g       *ABS*	00000000 __alt_mem_SDRAM_controller
0100dfdc g     F .text	00000038 alt_irq_init
0100dd60 g     F .text	00000064 alt_release_fd
0100ff1c g     O .rodata	00000100 .hidden __clz_tab
01013624 g     O .bss	00000004 _PathLocale
0100f974 g     F .text	00000014 atexit
010098e4 g     F .text	00000060 _write_r
01005bc0 g     F .text	00000018 setlocale
01011af8 g     O .rwdata	00000004 _impure_ptr
01013644 g     O .bss	00000004 alt_argc
01000660 g     F .text	00000044 timer_interrupt
01004a48 g     F .text	0000021c __sflush_r
0100ed7c g     F .text	00000060 _do_dtors
01005bac g     F .text	00000008 __locale_cjk_lang
01000020 g       .exceptions	00000000 alt_irq_entry
01007580 g     F .text	00000064 __ulp
01005078 g     F .text	00000018 __fp_unlock_all
01011b0c g     O .rwdata	00000008 alt_fs_list
01000020 g       *ABS*	00000000 __ram_exceptions_start
01005bd8 g     F .text	0000000c localeconv
0100ee10 g     F .text	00000050 alt_ic_isr_register
01011b34 g       *ABS*	00000000 _edata
01083f84 g       *ABS*	00000000 _end
01009b60 g     F .text	00000164 __fputwc
01000244 g       *ABS*	00000000 __ram_exceptions_end
0100e598 g     F .text	000000f0 altera_avalon_jtag_uart_ioctl
0100eee8 g     F .text	0000008c alt_ic_irq_disable
010080e0 g     F .text	0000007c __swrite
01011b04 g     O .rwdata	00000004 __malloc_trim_threshold
01005ba0 g     F .text	0000000c __locale_msgcharset
0100f988 g     F .text	00000038 exit
01005a44 g     F .text	000000c4 _fwalk_reent
01007384 g     F .text	000001fc __mdiff
0100ad4c g     F .text	00000074 .hidden __modsi3
02000000 g       *ABS*	00000000 __alt_data_end
01000020 g     F .exceptions	00000000 alt_exception
01005054 g     F .text	00000004 __sfp_lock_release
0100fcd4 g     F .text	00000034 _exit
0100eac8 g     F .text	0000012c alt_alarm_start
01005be4 g     F .text	000001bc __smakebuf_r
01000d04 g     F .text	00000098 strlen
0100f2f0 g     F .text	00000154 open
0100c098 g     F .text	000000dc .hidden __gedf2
01011b08 g     O .rwdata	00000004 __wctomb
01008398 g     F .text	00000018 __sprint_r
0100eddc g     F .text	00000034 alt_icache_flush_all
01011b24 g     O .rwdata	00000004 alt_priority_mask
0100ee60 g     F .text	00000088 alt_ic_irq_enable
01002f94 g     F .text	0000001c __vfprintf_internal
0100a1bc g     F .text	0000005c _wctomb_r
0100c980 g     F .text	000008fc .hidden __subdf3
01006db8 g     F .text	000000b0 __lo0bits
01011b2c g     O .rwdata	00000008 alt_alarm_list
0100ed1c g     F .text	00000060 _do_ctors
0100a0cc g     F .text	000000c0 wcrtomb
0100d520 g     F .text	000000d0 close
0100d9d0 g     F .text	00000084 alt_load
01009ce8 g     F .text	00000080 fputwc
01005058 g     F .text	00000004 __sinit_lock_acquire
01006b2c g     F .text	00000120 __multadd
01006b04 g     F .text	00000028 _Bfree



Disassembly of section .entry:

01000000 <__reset>:
#if NIOS2_ICACHE_SIZE > 0 && defined(ALT_ALLOW_CODE_AT_RESET) && (!defined(ALT_SIM_OPTIMIZE) || defined(NIOS2_ECC_PRESENT))
    /* Assume the instruction cache size is always a power of two. */
#if NIOS2_ICACHE_SIZE > 0x8000
    movhi r2, %hi(NIOS2_ICACHE_SIZE)
#else
    movui r2, NIOS2_ICACHE_SIZE
 1000000:	00840014 	movui	r2,4096
#endif

0:
    initi r2
 1000004:	1001483a 	initi	r2
    addi r2, r2, -NIOS2_ICACHE_LINE_SIZE
 1000008:	10bff804 	addi	r2,r2,-32
    bgt r2, zero, 0b
 100000c:	00bffd16 	blt	zero,r2,1000004 <__reset+0x4>
 * Jump to the _start entry point in the .text section if reset code
 * is allowed or if optimizing for RTL simulation.
 */
#if defined(ALT_ALLOW_CODE_AT_RESET) || defined(ALT_SIM_OPTIMIZE)
    /* Jump to the _start entry point in the .text section. */
    movhi r1, %hi(_start)
 1000010:	00404034 	movhi	at,256
    ori r1, r1, %lo(_start)
 1000014:	08409114 	ori	at,at,580
    jmp r1
 1000018:	0800683a 	jmp	at
 100001c:	00000000 	call	0 <__alt_mem_SDRAM_controller-0x1000000>

Disassembly of section .exceptions:

01000020 <alt_exception>:

#else /* ALT_EXCEPTION_STACK disabled */
        /* 
         * Reserve space on normal stack for registers about to be pushed.
         */
        addi  sp, sp, -76
 1000020:	deffed04 	addi	sp,sp,-76
         * documentation for details).
         *
         * Leave a gap in the stack frame at 4(sp) for the muldiv handler to
         * store zero into.
         */
        stw   ra,  0(sp)
 1000024:	dfc00015 	stw	ra,0(sp)
        stw   r1,   8(sp)
 1000028:	d8400215 	stw	at,8(sp)
        stw   r2,  12(sp)
 100002c:	d8800315 	stw	r2,12(sp)
        stw   r3,  16(sp)
 1000030:	d8c00415 	stw	r3,16(sp)
        stw   r4,  20(sp)
 1000034:	d9000515 	stw	r4,20(sp)
        stw   r5,  24(sp)
 1000038:	d9400615 	stw	r5,24(sp)
        stw   r6,  28(sp)
 100003c:	d9800715 	stw	r6,28(sp)
        stw   r7,  32(sp)
 1000040:	d9c00815 	stw	r7,32(sp)
        rdctl r5, estatus   /* Read early to avoid usage stall */
 1000044:	000b307a 	rdctl	r5,estatus
        stw   r8,  36(sp)
 1000048:	da000915 	stw	r8,36(sp)
        stw   r9,  40(sp)
 100004c:	da400a15 	stw	r9,40(sp)
        stw   r10, 44(sp)
 1000050:	da800b15 	stw	r10,44(sp)
        stw   r11, 48(sp)
 1000054:	dac00c15 	stw	r11,48(sp)
        stw   r12, 52(sp)
 1000058:	db000d15 	stw	r12,52(sp)
        stw   r13, 56(sp)
 100005c:	db400e15 	stw	r13,56(sp)
        stw   r14, 60(sp)
 1000060:	db800f15 	stw	r14,60(sp)
        stw   r15, 64(sp)
 1000064:	dbc01015 	stw	r15,64(sp)
        /*
         * ea-4 contains the address of the instruction being executed
         * when the exception occured. For interrupt exceptions, we will
         * will be re-issue the isntruction. Store it in 72(sp)
         */
        stw   r5,  68(sp)  /* estatus */
 1000068:	d9401115 	stw	r5,68(sp)
        addi  r15, ea, -4  /* instruction that caused exception */
 100006c:	ebffff04 	addi	r15,ea,-4
        stw   r15,  72(sp)
 1000070:	dbc01215 	stw	r15,72(sp)
#else
        /*
         * Test to see if the exception was a software exception or caused 
         * by an external interrupt, and vector accordingly.
         */
        rdctl r4, ipending
 1000074:	0009313a 	rdctl	r4,ipending
        andi  r2, r5, 1
 1000078:	2880004c 	andi	r2,r5,1
        beq   r2, zero, .Lnot_irq
 100007c:	10000326 	beq	r2,zero,100008c <alt_exception+0x6c>
        beq   r4, zero, .Lnot_irq
 1000080:	20000226 	beq	r4,zero,100008c <alt_exception+0x6c>
        /*
         * Now that all necessary registers have been preserved, call 
         * alt_irq_handler() to process the interrupts.
         */

        call alt_irq_handler
 1000084:	10000fc0 	call	10000fc <alt_irq_handler>

        .section .exceptions.irqreturn, "xa"

        br    .Lexception_exit
 1000088:	00000706 	br	10000a8 <alt_exception+0x88>
         * upon completion, so we write ea (address of instruction *after*
         * the one where the exception occured) into 72(sp). The actual
         * instruction that caused the exception is written in r2, which these
         * handlers will utilize.
         */
        stw ea, 72(sp) /* EA is PC+4 so will skip over instruction causing exception */
 100008c:	df401215 	stw	ea,72(sp)
.Lunknown_16bit:
        addi.n r4, r4, 2 /* Need PC+2 to skip over instruction causing exception */
        stw r4, 72(sp)

#else /* CDX is not Enabled and all instructions are 32bits */
        ldw r2, -4(ea) /* Instruction value that caused exception */
 1000090:	e8bfff17 	ldw	r2,-4(ea)
         * debugger is present) or go into an infinite loop since the
         * handling behavior is undefined; in that case we will not return here.
         */

        /* Load exception-causing address as first argument (r4) */
        addi   r4, ea, -4
 1000094:	e93fff04 	addi	r4,ea,-4

        /* Call the instruction-exception entry */
        call   alt_instruction_exception_entry
 1000098:	10001d00 	call	10001d0 <alt_instruction_exception_entry>
         * instruction
         *
         * Return code was 0: Skip. The instruction after the exception is
         * already stored in 72(sp).
         */
        bne   r2, r0, .Lexception_exit
 100009c:	1000021e 	bne	r2,zero,10000a8 <alt_exception+0x88>

        /*
         * Otherwise, modify 72(sp) to re-issue the instruction that caused the
         * exception.
         */
        addi  r15, ea, -4  /* instruction that caused exception */
 10000a0:	ebffff04 	addi	r15,ea,-4
        stw   r15,  72(sp)
 10000a4:	dbc01215 	stw	r15,72(sp)
        /* 
         * Restore the saved registers, so that all general purpose registers 
         * have been restored to their state at the time the interrupt occured.
         */

        ldw   r5,  68(sp)
 10000a8:	d9401117 	ldw	r5,68(sp)
        ldw   ea,  72(sp)  /* This becomes the PC once eret is executed */
 10000ac:	df401217 	ldw	ea,72(sp)
        ldw   ra,   0(sp)
 10000b0:	dfc00017 	ldw	ra,0(sp)

        wrctl estatus, r5
 10000b4:	2801707a 	wrctl	estatus,r5

        ldw   r1,   8(sp)
 10000b8:	d8400217 	ldw	at,8(sp)
        ldw   r2,  12(sp)
 10000bc:	d8800317 	ldw	r2,12(sp)
        ldw   r3,  16(sp)
 10000c0:	d8c00417 	ldw	r3,16(sp)
        ldw   r4,  20(sp)
 10000c4:	d9000517 	ldw	r4,20(sp)
        ldw   r5,  24(sp)
 10000c8:	d9400617 	ldw	r5,24(sp)
        ldw   r6,  28(sp)
 10000cc:	d9800717 	ldw	r6,28(sp)
        ldw   r7,  32(sp)
 10000d0:	d9c00817 	ldw	r7,32(sp)

#if defined(ALT_EXCEPTION_STACK) && defined(ALT_STACK_CHECK)
        ldw   et, %gprel(alt_exception_old_stack_limit)(gp)
#endif

        ldw   r8,  36(sp)
 10000d4:	da000917 	ldw	r8,36(sp)
        ldw   r9,  40(sp)
 10000d8:	da400a17 	ldw	r9,40(sp)
        ldw   r10, 44(sp)
 10000dc:	da800b17 	ldw	r10,44(sp)
        ldw   r11, 48(sp)
 10000e0:	dac00c17 	ldw	r11,48(sp)
        ldw   r12, 52(sp)
 10000e4:	db000d17 	ldw	r12,52(sp)
        ldw   r13, 56(sp)
 10000e8:	db400e17 	ldw	r13,56(sp)
        ldw   r14, 60(sp)
 10000ec:	db800f17 	ldw	r14,60(sp)
        ldw   r15, 64(sp)
 10000f0:	dbc01017 	ldw	r15,64(sp)
        stw   et, %gprel(alt_stack_limit_value)(gp)
        stw   zero, %gprel(alt_exception_old_stack_limit)(gp)
#endif /* ALT_STACK_CHECK */
        ldw   sp,  76(sp)
#else /* ALT_EXCEPTION_STACK disabled */
        addi  sp, sp, 76
 10000f4:	dec01304 	addi	sp,sp,76

        /*
         * Return to the interrupted instruction.
         */

        eret
 10000f8:	ef80083a 	eret

010000fc <alt_irq_handler>:
 * instruction is present if the macro ALT_CI_INTERRUPT_VECTOR defined.
 */

void alt_irq_handler (void) __attribute__ ((section (".exceptions")));
void alt_irq_handler (void)
{
 10000fc:	defff904 	addi	sp,sp,-28
 1000100:	dfc00615 	stw	ra,24(sp)
 1000104:	df000515 	stw	fp,20(sp)
 1000108:	df000504 	addi	fp,sp,20
  
  /*
   * Notify the operating system that we are at interrupt level.
   */ 
  
  ALT_OS_INT_ENTER();
 100010c:	0001883a 	nop
#ifndef NIOS2_EIC_PRESENT
static ALT_INLINE alt_u32 ALT_ALWAYS_INLINE alt_irq_pending (void)
{
  alt_u32 active;

  NIOS2_READ_IPENDING (active);
 1000110:	0005313a 	rdctl	r2,ipending
 1000114:	e0bffe15 	stw	r2,-8(fp)

  return active;
 1000118:	e0bffe17 	ldw	r2,-8(fp)
   * Consider the case where the high priority interupt is asserted during
   * the interrupt entry sequence for a lower priority interrupt to see why
   * this is the case.
   */

  active = alt_irq_pending ();
 100011c:	e0bffb15 	stw	r2,-20(fp)

  do
  {
    i = 0;
 1000120:	e03ffd15 	stw	zero,-12(fp)
    mask = 1;
 1000124:	00800044 	movi	r2,1
 1000128:	e0bffc15 	stw	r2,-16(fp)
     * called to clear the interrupt condition.
     */

    do
    {
      if (active & mask)
 100012c:	e0fffb17 	ldw	r3,-20(fp)
 1000130:	e0bffc17 	ldw	r2,-16(fp)
 1000134:	1884703a 	and	r2,r3,r2
 1000138:	10001426 	beq	r2,zero,100018c <alt_irq_handler+0x90>
      { 
#ifdef ALT_ENHANCED_INTERRUPT_API_PRESENT
        alt_irq[i].handler(alt_irq[i].context); 
 100013c:	00804234 	movhi	r2,264
 1000140:	108fa104 	addi	r2,r2,16004
 1000144:	e0fffd17 	ldw	r3,-12(fp)
 1000148:	180690fa 	slli	r3,r3,3
 100014c:	10c5883a 	add	r2,r2,r3
 1000150:	10c00017 	ldw	r3,0(r2)
 1000154:	00804234 	movhi	r2,264
 1000158:	108fa104 	addi	r2,r2,16004
 100015c:	e13ffd17 	ldw	r4,-12(fp)
 1000160:	200890fa 	slli	r4,r4,3
 1000164:	1105883a 	add	r2,r2,r4
 1000168:	10800104 	addi	r2,r2,4
 100016c:	10800017 	ldw	r2,0(r2)
 1000170:	1009883a 	mov	r4,r2
 1000174:	183ee83a 	callr	r3
#else
        alt_irq[i].handler(alt_irq[i].context, i); 
#endif
        break;
 1000178:	0001883a 	nop
#ifndef NIOS2_EIC_PRESENT
static ALT_INLINE alt_u32 ALT_ALWAYS_INLINE alt_irq_pending (void)
{
  alt_u32 active;

  NIOS2_READ_IPENDING (active);
 100017c:	0005313a 	rdctl	r2,ipending
 1000180:	e0bfff15 	stw	r2,-4(fp)

  return active;
 1000184:	e0bfff17 	ldw	r2,-4(fp)
 1000188:	00000706 	br	10001a8 <alt_irq_handler+0xac>
      }
      mask <<= 1;
 100018c:	e0bffc17 	ldw	r2,-16(fp)
 1000190:	1085883a 	add	r2,r2,r2
 1000194:	e0bffc15 	stw	r2,-16(fp)
      i++;
 1000198:	e0bffd17 	ldw	r2,-12(fp)
 100019c:	10800044 	addi	r2,r2,1
 10001a0:	e0bffd15 	stw	r2,-12(fp)

    } while (1);
 10001a4:	003fe106 	br	100012c <alt_irq_handler+0x30>

    active = alt_irq_pending ();
 10001a8:	e0bffb15 	stw	r2,-20(fp)
    
  } while (active);
 10001ac:	e0bffb17 	ldw	r2,-20(fp)
 10001b0:	103fdb1e 	bne	r2,zero,1000120 <alt_irq_handler+0x24>

  /*
   * Notify the operating system that interrupt processing is complete.
   */ 

  ALT_OS_INT_EXIT();
 10001b4:	0001883a 	nop
}
 10001b8:	0001883a 	nop
 10001bc:	e037883a 	mov	sp,fp
 10001c0:	dfc00117 	ldw	ra,4(sp)
 10001c4:	df000017 	ldw	fp,0(sp)
 10001c8:	dec00204 	addi	sp,sp,8
 10001cc:	f800283a 	ret

010001d0 <alt_instruction_exception_entry>:
 * that handler if it has been registered. Absent a handler, it will
 * break break or hang as discussed below.
 */
int 
alt_instruction_exception_entry (alt_u32 exception_pc)
{
 10001d0:	defffb04 	addi	sp,sp,-20
 10001d4:	dfc00415 	stw	ra,16(sp)
 10001d8:	df000315 	stw	fp,12(sp)
 10001dc:	df000304 	addi	fp,sp,12
 10001e0:	e13fff15 	stw	r4,-4(fp)
 * NIOS2_EXCEPTION_CAUSE_NOT_PRESENT. Your handling routine should
 * check the validity of the cause argument before proceeding.
 */
#ifdef NIOS2_HAS_EXTRA_EXCEPTION_INFO
  /* Get exception cause & "badaddr" */
  NIOS2_READ_EXCEPTION(cause);
 10001e4:	000531fa 	rdctl	r2,exception
 10001e8:	e0bffd15 	stw	r2,-12(fp)
  cause = ( (cause & NIOS2_EXCEPTION_REG_CAUSE_MASK) >>
 10001ec:	e0bffd17 	ldw	r2,-12(fp)
 10001f0:	10801f0c 	andi	r2,r2,124
 10001f4:	1004d0ba 	srli	r2,r2,2
 10001f8:	e0bffd15 	stw	r2,-12(fp)
              NIOS2_EXCEPTION_REG_CAUSE_OFST );

  NIOS2_READ_BADADDR(badaddr);
 10001fc:	0005333a 	rdctl	r2,badaddr
 1000200:	e0bffe15 	stw	r2,-8(fp)
#else
  cause = NIOS2_EXCEPTION_CAUSE_NOT_PRESENT;
  badaddr = 0;
#endif /* NIOS2_HAS_EXTRA_EXCEPTION_INFO */

  if(alt_instruction_exception_handler) {
 1000204:	d0a6d917 	ldw	r2,-25756(gp)
 1000208:	10000726 	beq	r2,zero,1000228 <alt_instruction_exception_entry+0x58>
     * Call handler. Its return value indicates whether the exception-causing
     * instruction should be re-issued. The code that called us,
     * alt_eceptions_entry.S, will look at this value and adjust the ea
     * register as necessary
     */
    return alt_instruction_exception_handler(cause, exception_pc, badaddr);
 100020c:	d0a6d917 	ldw	r2,-25756(gp)
 1000210:	e0fffd17 	ldw	r3,-12(fp)
 1000214:	e1bffe17 	ldw	r6,-8(fp)
 1000218:	e17fff17 	ldw	r5,-4(fp)
 100021c:	1809883a 	mov	r4,r3
 1000220:	103ee83a 	callr	r2
 1000224:	00000206 	br	1000230 <alt_instruction_exception_entry+0x60>
   *    (a peripheral which negates its interrupt output before its
   *    interrupt handler has been executed will cause spurious interrupts)
   */
  else {
#ifdef NIOS2_HAS_DEBUG_STUB
    NIOS2_BREAK();
 1000228:	003da03a 	break	0
      ;
#endif /* NIOS2_HAS_DEBUG_STUB */
  }

  /* We should not get here. Remove compiler warning. */
  return NIOS2_EXCEPTION_RETURN_REISSUE_INST;
 100022c:	0005883a 	mov	r2,zero
}
 1000230:	e037883a 	mov	sp,fp
 1000234:	dfc00117 	ldw	ra,4(sp)
 1000238:	df000017 	ldw	fp,0(sp)
 100023c:	dec00204 	addi	sp,sp,8
 1000240:	f800283a 	ret

Disassembly of section .text:

01000244 <_start>:

    /* Assume the data cache size is always a power of two. */
#if NIOS2_DCACHE_SIZE > 0x8000
    movhi r2, %hi(NIOS2_DCACHE_SIZE)
#else
    movui r2, NIOS2_DCACHE_SIZE
 1000244:	00820014 	movui	r2,2048
#endif

0:
    initd 0(r2)
 1000248:	10000033 	initd	0(r2)
#ifdef NIOS2_ECC_PRESENT
    addi r2, r2, -4
#else
    addi r2, r2, -NIOS2_DCACHE_LINE_SIZE
 100024c:	10bff804 	addi	r2,r2,-32
#endif
    bgt r2, zero, 0b
 1000250:	00bffd16 	blt	zero,r2,1000248 <_start+0x4>

    /*
     * Now that the caches are initialized, set up the stack pointer and global pointer.
     * The values provided by the linker are assumed to be correctly aligned.
     */
    movhi sp, %hi(__alt_stack_pointer)
 1000254:	06c08034 	movhi	sp,512
    ori sp, sp, %lo(__alt_stack_pointer)
 1000258:	dec00014 	ori	sp,sp,0
    movhi gp, %hi(_gp)
 100025c:	06804074 	movhi	gp,257
    ori gp, gp, %lo(_gp)
 1000260:	d6a6bd14 	ori	gp,gp,39668
 */
#ifndef ALT_SIM_OPTIMIZE
    /* Log that the BSS is about to be cleared. */
    ALT_LOG_PUTS(alt_log_msg_bss)

    movhi r2, %hi(__bss_start)
 1000264:	00804074 	movhi	r2,257
    ori r2, r2, %lo(__bss_start)
 1000268:	108d8814 	ori	r2,r2,13856

    movhi r3, %hi(__bss_end)
 100026c:	00c04234 	movhi	r3,264
    ori r3, r3, %lo(__bss_end)
 1000270:	18cfe114 	ori	r3,r3,16260

    beq r2, r3, 1f
 1000274:	10c00326 	beq	r2,r3,1000284 <_start+0x40>

0:
    stw zero, (r2)
 1000278:	10000015 	stw	zero,0(r2)
    addi r2, r2, 4
 100027c:	10800104 	addi	r2,r2,4
    bltu r2, r3, 0b
 1000280:	10fffd36 	bltu	r2,r3,1000278 <_start+0x34>
     * section aren't defined until alt_load() has been called).
     */
    mov   et, zero
#endif

    call alt_load
 1000284:	100d9d00 	call	100d9d0 <alt_load>

    /* Log that alt_main is about to be called. */
    ALT_LOG_PUTS(alt_log_msg_alt_main)

    /* Call the C entry point. It should never return. */
    call alt_main
 1000288:	100db640 	call	100db64 <alt_main>

0100028c <alt_after_alt_main>:

    /* Wait in infinite loop in case alt_main does return. */
alt_after_alt_main:
    br alt_after_alt_main
 100028c:	003fff06 	br	100028c <alt_after_alt_main>

01000290 <LCD_Write_Command>:

uint16_t redPicture[240*320];
uint16_t greenPicture[240*320];
uint16_t bluePicture[240*320];

void LCD_Write_Command(int command) {
 1000290:	defffe04 	addi	sp,sp,-8
 1000294:	df000115 	stw	fp,4(sp)
 1000298:	df000104 	addi	fp,sp,4
 100029c:	e13fff15 	stw	r4,-4(fp)
    IOWR_16DIRECT(DMA_LCD_0_BASE,0b000*4,command); // Adapt this line
 10002a0:	00808034 	movhi	r2,512
 10002a4:	10840004 	addi	r2,r2,4096
 10002a8:	e0ffff0b 	ldhu	r3,-4(fp)
 10002ac:	10c0002d 	sthio	r3,0(r2)
}
 10002b0:	0001883a 	nop
 10002b4:	e037883a 	mov	sp,fp
 10002b8:	df000017 	ldw	fp,0(sp)
 10002bc:	dec00104 	addi	sp,sp,4
 10002c0:	f800283a 	ret

010002c4 <LCD_Write_Data>:

void LCD_Write_Data(int data) {
 10002c4:	defffe04 	addi	sp,sp,-8
 10002c8:	df000115 	stw	fp,4(sp)
 10002cc:	df000104 	addi	fp,sp,4
 10002d0:	e13fff15 	stw	r4,-4(fp)
    IOWR_16DIRECT(DMA_LCD_0_BASE,0b001*4,data); // Adapt this line
 10002d4:	00808034 	movhi	r2,512
 10002d8:	10840104 	addi	r2,r2,4100
 10002dc:	e0ffff0b 	ldhu	r3,-4(fp)
 10002e0:	10c0002d 	sthio	r3,0(r2)
}
 10002e4:	0001883a 	nop
 10002e8:	e037883a 	mov	sp,fp
 10002ec:	df000017 	ldw	fp,0(sp)
 10002f0:	dec00104 	addi	sp,sp,4
 10002f4:	f800283a 	ret

010002f8 <init_LCD>:

void init_LCD() {
 10002f8:	defffe04 	addi	sp,sp,-8
 10002fc:	dfc00115 	stw	ra,4(sp)
 1000300:	df000015 	stw	fp,0(sp)
 1000304:	d839883a 	mov	fp,sp

  IOWR_8DIRECT(DMA_LCD_0_BASE,0b111*4,0b000); // set reset on and 16 bits mode
 1000308:	0007883a 	mov	r3,zero
 100030c:	00808034 	movhi	r2,512
 1000310:	10840704 	addi	r2,r2,4124
 1000314:	10c00025 	stbio	r3,0(r2)
  while (counter<100){}   // include delay of at least 120 ms use your timer or a loop
 1000318:	0001883a 	nop
 100031c:	d0a6cb17 	ldw	r2,-25812(gp)
 1000320:	10801910 	cmplti	r2,r2,100
 1000324:	103ffd1e 	bne	r2,zero,100031c <init_LCD+0x24>
  IOWR_8DIRECT(DMA_LCD_0_BASE,0b111*4,0b100); // set reset off and 16 bits mode and enable LED_CS
 1000328:	00c00104 	movi	r3,4
 100032c:	00808034 	movhi	r2,512
 1000330:	10840704 	addi	r2,r2,4124
 1000334:	10c00025 	stbio	r3,0(r2)
  while (counter<200){}   // include delay of at least 120 ms use your timer or a loop
 1000338:	0001883a 	nop
 100033c:	d0a6cb17 	ldw	r2,-25812(gp)
 1000340:	10803210 	cmplti	r2,r2,200
 1000344:	103ffd1e 	bne	r2,zero,100033c <init_LCD+0x44>

  LCD_Write_Command(0x0028);     //display OFF
 1000348:	01000a04 	movi	r4,40
 100034c:	10002900 	call	1000290 <LCD_Write_Command>
  LCD_Write_Command(0x0011);     //exit SLEEP mode
 1000350:	01000444 	movi	r4,17
 1000354:	10002900 	call	1000290 <LCD_Write_Command>
  LCD_Write_Data(0x0000);
 1000358:	0009883a 	mov	r4,zero
 100035c:	10002c40 	call	10002c4 <LCD_Write_Data>

  LCD_Write_Command(0x00CB);     //Power Control A
 1000360:	010032c4 	movi	r4,203
 1000364:	10002900 	call	1000290 <LCD_Write_Command>
  LCD_Write_Data(0x0039);     //always 0x39
 1000368:	01000e44 	movi	r4,57
 100036c:	10002c40 	call	10002c4 <LCD_Write_Data>
  LCD_Write_Data(0x002C);     //always 0x2C
 1000370:	01000b04 	movi	r4,44
 1000374:	10002c40 	call	10002c4 <LCD_Write_Data>
  LCD_Write_Data(0x0000);     //always 0x00
 1000378:	0009883a 	mov	r4,zero
 100037c:	10002c40 	call	10002c4 <LCD_Write_Data>
  LCD_Write_Data(0x0034);     //Vcore = 1.6V
 1000380:	01000d04 	movi	r4,52
 1000384:	10002c40 	call	10002c4 <LCD_Write_Data>
  LCD_Write_Data(0x0002);     //DDVDH = 5.6V
 1000388:	01000084 	movi	r4,2
 100038c:	10002c40 	call	10002c4 <LCD_Write_Data>

  LCD_Write_Command(0x00CF);     //Power Control B
 1000390:	010033c4 	movi	r4,207
 1000394:	10002900 	call	1000290 <LCD_Write_Command>
  LCD_Write_Data(0x0000);     //always 0x00
 1000398:	0009883a 	mov	r4,zero
 100039c:	10002c40 	call	10002c4 <LCD_Write_Data>
  LCD_Write_Data(0x0081);     //PCEQ off
 10003a0:	01002044 	movi	r4,129
 10003a4:	10002c40 	call	10002c4 <LCD_Write_Data>
  LCD_Write_Data(0x0030);     //ESD protection
 10003a8:	01000c04 	movi	r4,48
 10003ac:	10002c40 	call	10002c4 <LCD_Write_Data>

  LCD_Write_Command(0x00E8);     //Driver timing control A
 10003b0:	01003a04 	movi	r4,232
 10003b4:	10002900 	call	1000290 <LCD_Write_Command>
  LCD_Write_Data(0x0085);     //non - overlap
 10003b8:	01002144 	movi	r4,133
 10003bc:	10002c40 	call	10002c4 <LCD_Write_Data>
  LCD_Write_Data(0x0001);     //EQ timing
 10003c0:	01000044 	movi	r4,1
 10003c4:	10002c40 	call	10002c4 <LCD_Write_Data>
  LCD_Write_Data(0x0079);     //Pre-charge timing
 10003c8:	01001e44 	movi	r4,121
 10003cc:	10002c40 	call	10002c4 <LCD_Write_Data>


  LCD_Write_Command(0x00EA);     //Driver timing control B
 10003d0:	01003a84 	movi	r4,234
 10003d4:	10002900 	call	1000290 <LCD_Write_Command>
  LCD_Write_Data(0x0000);        //Gate driver timing
 10003d8:	0009883a 	mov	r4,zero
 10003dc:	10002c40 	call	10002c4 <LCD_Write_Data>
  LCD_Write_Data(0x0000);        //always 0x00
 10003e0:	0009883a 	mov	r4,zero
 10003e4:	10002c40 	call	10002c4 <LCD_Write_Data>

  LCD_Write_Command(0x00ED); //Power‐On sequence control
 10003e8:	01003b44 	movi	r4,237
 10003ec:	10002900 	call	1000290 <LCD_Write_Command>
  LCD_Write_Data(0x0064);        //soft start
 10003f0:	01001904 	movi	r4,100
 10003f4:	10002c40 	call	10002c4 <LCD_Write_Data>
  LCD_Write_Data(0x0003);        //power on sequence
 10003f8:	010000c4 	movi	r4,3
 10003fc:	10002c40 	call	10002c4 <LCD_Write_Data>
  LCD_Write_Data(0x0012);        //power on sequence
 1000400:	01000484 	movi	r4,18
 1000404:	10002c40 	call	10002c4 <LCD_Write_Data>
  LCD_Write_Data(0x0081);        //DDVDH enhance on
 1000408:	01002044 	movi	r4,129
 100040c:	10002c40 	call	10002c4 <LCD_Write_Data>

  LCD_Write_Command(0x00F7);     //Pump ratio control
 1000410:	01003dc4 	movi	r4,247
 1000414:	10002900 	call	1000290 <LCD_Write_Command>
  LCD_Write_Data(0x0020);     //DDVDH=2xVCI
 1000418:	01000804 	movi	r4,32
 100041c:	10002c40 	call	10002c4 <LCD_Write_Data>

  LCD_Write_Command(0x00C0);    //power control 1
 1000420:	01003004 	movi	r4,192
 1000424:	10002900 	call	1000290 <LCD_Write_Command>
  LCD_Write_Data(0x0026);
 1000428:	01000984 	movi	r4,38
 100042c:	10002c40 	call	10002c4 <LCD_Write_Data>
  LCD_Write_Data(0x0004);     //second parameter for ILI9340 (ignored by ILI9341)
 1000430:	01000104 	movi	r4,4
 1000434:	10002c40 	call	10002c4 <LCD_Write_Data>

  LCD_Write_Command(0x00C1);     //power control 2
 1000438:	01003044 	movi	r4,193
 100043c:	10002900 	call	1000290 <LCD_Write_Command>
  LCD_Write_Data(0x0011);
 1000440:	01000444 	movi	r4,17
 1000444:	10002c40 	call	10002c4 <LCD_Write_Data>

  LCD_Write_Command(0x00C5);     //VCOM control 1
 1000448:	01003144 	movi	r4,197
 100044c:	10002900 	call	1000290 <LCD_Write_Command>
  LCD_Write_Data(0x0035);
 1000450:	01000d44 	movi	r4,53
 1000454:	10002c40 	call	10002c4 <LCD_Write_Data>
  LCD_Write_Data(0x003E);
 1000458:	01000f84 	movi	r4,62
 100045c:	10002c40 	call	10002c4 <LCD_Write_Data>

  LCD_Write_Command(0x00C7);     //VCOM control 2
 1000460:	010031c4 	movi	r4,199
 1000464:	10002900 	call	1000290 <LCD_Write_Command>
  LCD_Write_Data(0x00BE);
 1000468:	01002f84 	movi	r4,190
 100046c:	10002c40 	call	10002c4 <LCD_Write_Data>

  LCD_Write_Command(0x00B1);     //frame rate control
 1000470:	01002c44 	movi	r4,177
 1000474:	10002900 	call	1000290 <LCD_Write_Command>
  LCD_Write_Data(0x0000);
 1000478:	0009883a 	mov	r4,zero
 100047c:	10002c40 	call	10002c4 <LCD_Write_Data>
  LCD_Write_Data(0x0010);
 1000480:	01000404 	movi	r4,16
 1000484:	10002c40 	call	10002c4 <LCD_Write_Data>

  LCD_Write_Command(0x003A);    //pixel format = 16 bit per pixel
 1000488:	01000e84 	movi	r4,58
 100048c:	10002900 	call	1000290 <LCD_Write_Command>
  LCD_Write_Data(0x0055);
 1000490:	01001544 	movi	r4,85
 1000494:	10002c40 	call	10002c4 <LCD_Write_Data>

  LCD_Write_Command(0x00B6);     //display function control
 1000498:	01002d84 	movi	r4,182
 100049c:	10002900 	call	1000290 <LCD_Write_Command>
  LCD_Write_Data(0x000A);
 10004a0:	01000284 	movi	r4,10
 10004a4:	10002c40 	call	10002c4 <LCD_Write_Data>
  LCD_Write_Data(0x00A2);
 10004a8:	01002884 	movi	r4,162
 10004ac:	10002c40 	call	10002c4 <LCD_Write_Data>

  LCD_Write_Command(0x00F2);     //3G Gamma control
 10004b0:	01003c84 	movi	r4,242
 10004b4:	10002900 	call	1000290 <LCD_Write_Command>
  LCD_Write_Data(0x0002);         //off
 10004b8:	01000084 	movi	r4,2
 10004bc:	10002c40 	call	10002c4 <LCD_Write_Data>

  LCD_Write_Command(0x0026);     //Gamma curve 3
 10004c0:	01000984 	movi	r4,38
 10004c4:	10002900 	call	1000290 <LCD_Write_Command>
  LCD_Write_Data(0x0001);
 10004c8:	01000044 	movi	r4,1
 10004cc:	10002c40 	call	10002c4 <LCD_Write_Data>

  LCD_Write_Command(0x0036);     //memory access control = BGR
 10004d0:	01000d84 	movi	r4,54
 10004d4:	10002900 	call	1000290 <LCD_Write_Command>
  LCD_Write_Data(0x0000);
 10004d8:	0009883a 	mov	r4,zero
 10004dc:	10002c40 	call	10002c4 <LCD_Write_Data>

  LCD_Write_Command(0x002A);     //column address set
 10004e0:	01000a84 	movi	r4,42
 10004e4:	10002900 	call	1000290 <LCD_Write_Command>
  LCD_Write_Data(0x0000);
 10004e8:	0009883a 	mov	r4,zero
 10004ec:	10002c40 	call	10002c4 <LCD_Write_Data>
  LCD_Write_Data(0x0000);        //start 0x0000
 10004f0:	0009883a 	mov	r4,zero
 10004f4:	10002c40 	call	10002c4 <LCD_Write_Data>
  LCD_Write_Data(0x0000);
 10004f8:	0009883a 	mov	r4,zero
 10004fc:	10002c40 	call	10002c4 <LCD_Write_Data>
  LCD_Write_Data(0x00EF);        //end 0x00EF
 1000500:	01003bc4 	movi	r4,239
 1000504:	10002c40 	call	10002c4 <LCD_Write_Data>

  LCD_Write_Command(0x002B);    //page address set
 1000508:	01000ac4 	movi	r4,43
 100050c:	10002900 	call	1000290 <LCD_Write_Command>
  LCD_Write_Data(0x0000);
 1000510:	0009883a 	mov	r4,zero
 1000514:	10002c40 	call	10002c4 <LCD_Write_Data>
  LCD_Write_Data(0x0000);        //start 0x0000
 1000518:	0009883a 	mov	r4,zero
 100051c:	10002c40 	call	10002c4 <LCD_Write_Data>
  LCD_Write_Data(0x0001);
 1000520:	01000044 	movi	r4,1
 1000524:	10002c40 	call	10002c4 <LCD_Write_Data>
  LCD_Write_Data(0x003F);        //end 0x013F
 1000528:	01000fc4 	movi	r4,63
 100052c:	10002c40 	call	10002c4 <LCD_Write_Data>

  LCD_Write_Command(0x0029);
 1000530:	01000a44 	movi	r4,41
 1000534:	10002900 	call	1000290 <LCD_Write_Command>

}
 1000538:	0001883a 	nop
 100053c:	e037883a 	mov	sp,fp
 1000540:	dfc00117 	ldw	ra,4(sp)
 1000544:	df000017 	ldw	fp,0(sp)
 1000548:	dec00204 	addi	sp,sp,8
 100054c:	f800283a 	ret

01000550 <sendPixel>:

void sendPixel(uint16_t red, uint16_t green, uint16_t blue) {
 1000550:	defffb04 	addi	sp,sp,-20
 1000554:	dfc00415 	stw	ra,16(sp)
 1000558:	df000315 	stw	fp,12(sp)
 100055c:	df000304 	addi	fp,sp,12
 1000560:	2807883a 	mov	r3,r5
 1000564:	3005883a 	mov	r2,r6
 1000568:	e13ffd0d 	sth	r4,-12(fp)
 100056c:	e0fffe0d 	sth	r3,-8(fp)
 1000570:	e0bfff0d 	sth	r2,-4(fp)
	LCD_Write_Data(((blue >> 3)<<11) + ((green >> 2)<<5) + (red >> 3));
 1000574:	e0bfff0b 	ldhu	r2,-4(fp)
 1000578:	1004d0fa 	srli	r2,r2,3
 100057c:	10bfffcc 	andi	r2,r2,65535
 1000580:	100692fa 	slli	r3,r2,11
 1000584:	e0bffe0b 	ldhu	r2,-8(fp)
 1000588:	1004d0ba 	srli	r2,r2,2
 100058c:	10bfffcc 	andi	r2,r2,65535
 1000590:	1004917a 	slli	r2,r2,5
 1000594:	1887883a 	add	r3,r3,r2
 1000598:	e0bffd0b 	ldhu	r2,-12(fp)
 100059c:	1004d0fa 	srli	r2,r2,3
 10005a0:	10bfffcc 	andi	r2,r2,65535
 10005a4:	1885883a 	add	r2,r3,r2
 10005a8:	1009883a 	mov	r4,r2
 10005ac:	10002c40 	call	10002c4 <LCD_Write_Data>
}
 10005b0:	0001883a 	nop
 10005b4:	e037883a 	mov	sp,fp
 10005b8:	dfc00117 	ldw	ra,4(sp)
 10005bc:	df000017 	ldw	fp,0(sp)
 10005c0:	dec00204 	addi	sp,sp,8
 10005c4:	f800283a 	ret

010005c8 <sendPicture>:
void sendPicture(uint16_t red, uint16_t green, uint16_t blue){
 10005c8:	defffa04 	addi	sp,sp,-24
 10005cc:	dfc00515 	stw	ra,20(sp)
 10005d0:	df000415 	stw	fp,16(sp)
 10005d4:	df000404 	addi	fp,sp,16
 10005d8:	2807883a 	mov	r3,r5
 10005dc:	3005883a 	mov	r2,r6
 10005e0:	e13ffd0d 	sth	r4,-12(fp)
 10005e4:	e0fffe0d 	sth	r3,-8(fp)
 10005e8:	e0bfff0d 	sth	r2,-4(fp)
	counter = 0;
 10005ec:	d026cb15 	stw	zero,-25812(gp)
	for (int i = 0; i < (320*240); i++){
 10005f0:	e03ffc15 	stw	zero,-16(fp)
 10005f4:	00000a06 	br	1000620 <sendPicture+0x58>
		sendPixel(red, green, blue);
 10005f8:	e0bffd0b 	ldhu	r2,-12(fp)
 10005fc:	e0fffe0b 	ldhu	r3,-8(fp)
 1000600:	e13fff0b 	ldhu	r4,-4(fp)
 1000604:	200d883a 	mov	r6,r4
 1000608:	180b883a 	mov	r5,r3
 100060c:	1009883a 	mov	r4,r2
 1000610:	10005500 	call	1000550 <sendPixel>
void sendPixel(uint16_t red, uint16_t green, uint16_t blue) {
	LCD_Write_Data(((blue >> 3)<<11) + ((green >> 2)<<5) + (red >> 3));
}
void sendPicture(uint16_t red, uint16_t green, uint16_t blue){
	counter = 0;
	for (int i = 0; i < (320*240); i++){
 1000614:	e0bffc17 	ldw	r2,-16(fp)
 1000618:	10800044 	addi	r2,r2,1
 100061c:	e0bffc15 	stw	r2,-16(fp)
 1000620:	e0fffc17 	ldw	r3,-16(fp)
 1000624:	00800074 	movhi	r2,1
 1000628:	108affc4 	addi	r2,r2,11263
 100062c:	10fff20e 	bge	r2,r3,10005f8 <sendPicture+0x30>
		sendPixel(red, green, blue);
	}
	printf("Refresh time is %d ms\n", counter*10);
 1000630:	d0a6cb17 	ldw	r2,-25812(gp)
 1000634:	108002a4 	muli	r2,r2,10
 1000638:	100b883a 	mov	r5,r2
 100063c:	01004074 	movhi	r4,257
 1000640:	213f4204 	addi	r4,r4,-760
 1000644:	1000bf40 	call	1000bf4 <printf>
}
 1000648:	0001883a 	nop
 100064c:	e037883a 	mov	sp,fp
 1000650:	dfc00117 	ldw	ra,4(sp)
 1000654:	df000017 	ldw	fp,0(sp)
 1000658:	dec00204 	addi	sp,sp,8
 100065c:	f800283a 	ret

01000660 <timer_interrupt>:
void timer_interrupt(void *context, alt_u32 id){
 1000660:	defffd04 	addi	sp,sp,-12
 1000664:	df000215 	stw	fp,8(sp)
 1000668:	df000204 	addi	fp,sp,8
 100066c:	e13ffe15 	stw	r4,-8(fp)
 1000670:	e17fff15 	stw	r5,-4(fp)

	counter++; // increase the counter;
 1000674:	d0a6cb17 	ldw	r2,-25812(gp)
 1000678:	10800044 	addi	r2,r2,1
 100067c:	d0a6cb15 	stw	r2,-25812(gp)
	// acknowledge IRQ on the timer;
	IOWR_16DIRECT(TIMER_0_BASE,0,0); //Reset the flag interrupt
 1000680:	0007883a 	mov	r3,zero
 1000684:	00808034 	movhi	r2,512
 1000688:	10840804 	addi	r2,r2,4128
 100068c:	10c0002d 	sthio	r3,0(r2)
}
 1000690:	0001883a 	nop
 1000694:	e037883a 	mov	sp,fp
 1000698:	df000017 	ldw	fp,0(sp)
 100069c:	dec00104 	addi	sp,sp,4
 10006a0:	f800283a 	ret

010006a4 <RGBtoBGR>:
int RGBtoBGR (uint16_t red, uint16_t green, uint16_t blue){
 10006a4:	defffc04 	addi	sp,sp,-16
 10006a8:	df000315 	stw	fp,12(sp)
 10006ac:	df000304 	addi	fp,sp,12
 10006b0:	2807883a 	mov	r3,r5
 10006b4:	3005883a 	mov	r2,r6
 10006b8:	e13ffd0d 	sth	r4,-12(fp)
 10006bc:	e0fffe0d 	sth	r3,-8(fp)
 10006c0:	e0bfff0d 	sth	r2,-4(fp)
	return (((blue >> 3)<<11) + ((green >> 2)<<5) + (red >> 3));
 10006c4:	e0bfff0b 	ldhu	r2,-4(fp)
 10006c8:	1004d0fa 	srli	r2,r2,3
 10006cc:	10bfffcc 	andi	r2,r2,65535
 10006d0:	100692fa 	slli	r3,r2,11
 10006d4:	e0bffe0b 	ldhu	r2,-8(fp)
 10006d8:	1004d0ba 	srli	r2,r2,2
 10006dc:	10bfffcc 	andi	r2,r2,65535
 10006e0:	1004917a 	slli	r2,r2,5
 10006e4:	1887883a 	add	r3,r3,r2
 10006e8:	e0bffd0b 	ldhu	r2,-12(fp)
 10006ec:	1004d0fa 	srli	r2,r2,3
 10006f0:	10bfffcc 	andi	r2,r2,65535
 10006f4:	1885883a 	add	r2,r3,r2
}
 10006f8:	e037883a 	mov	sp,fp
 10006fc:	df000017 	ldw	fp,0(sp)
 1000700:	dec00104 	addi	sp,sp,4
 1000704:	f800283a 	ret

01000708 <initPictures>:
void initPictures(){
 1000708:	defffb04 	addi	sp,sp,-20
 100070c:	dfc00415 	stw	ra,16(sp)
 1000710:	df000315 	stw	fp,12(sp)
 1000714:	dc000215 	stw	r16,8(sp)
 1000718:	df000304 	addi	fp,sp,12
	for (int j = 0; j < (240); j++){
 100071c:	e03ffd15 	stw	zero,-12(fp)
 1000720:	0000bf06 	br	1000a20 <initPictures+0x318>
		for (int i = 0; i < 320; i++){
 1000724:	e03ffe15 	stw	zero,-8(fp)
 1000728:	0000b706 	br	1000a08 <initPictures+0x300>
			if (i > 120){
 100072c:	e0bffe17 	ldw	r2,-8(fp)
 1000730:	10801e50 	cmplti	r2,r2,121
 1000734:	1000591e 	bne	r2,zero,100089c <initPictures+0x194>
				if (j > 160){
 1000738:	e0bffd17 	ldw	r2,-12(fp)
 100073c:	10802850 	cmplti	r2,r2,161
 1000740:	10002b1e 	bne	r2,zero,10007f0 <initPictures+0xe8>
					IOWR_16DIRECT(redPicture,(i*240+j)*2,RGBtoBGR(255,0,0)); // Adapt this line
 1000744:	e0bffe17 	ldw	r2,-8(fp)
 1000748:	10c03c24 	muli	r3,r2,240
 100074c:	e0bffd17 	ldw	r2,-12(fp)
 1000750:	1885883a 	add	r2,r3,r2
 1000754:	1085883a 	add	r2,r2,r2
 1000758:	1007883a 	mov	r3,r2
 100075c:	00804074 	movhi	r2,257
 1000760:	108da104 	addi	r2,r2,13956
 1000764:	18a1883a 	add	r16,r3,r2
 1000768:	000d883a 	mov	r6,zero
 100076c:	000b883a 	mov	r5,zero
 1000770:	01003fc4 	movi	r4,255
 1000774:	10006a40 	call	10006a4 <RGBtoBGR>
 1000778:	8080002d 	sthio	r2,0(r16)
					IOWR_16DIRECT(greenPicture,(i*240+j)*2,RGBtoBGR(0,255,0)); // Adapt this line
 100077c:	e0bffe17 	ldw	r2,-8(fp)
 1000780:	10c03c24 	muli	r3,r2,240
 1000784:	e0bffd17 	ldw	r2,-12(fp)
 1000788:	1885883a 	add	r2,r3,r2
 100078c:	1085883a 	add	r2,r2,r2
 1000790:	1007883a 	mov	r3,r2
 1000794:	008041b4 	movhi	r2,262
 1000798:	10b9a104 	addi	r2,r2,-6524
 100079c:	18a1883a 	add	r16,r3,r2
 10007a0:	000d883a 	mov	r6,zero
 10007a4:	01403fc4 	movi	r5,255
 10007a8:	0009883a 	mov	r4,zero
 10007ac:	10006a40 	call	10006a4 <RGBtoBGR>
 10007b0:	8080002d 	sthio	r2,0(r16)
					IOWR_16DIRECT(bluePicture,(i*240+j)*2,RGBtoBGR(0,0,255)); // Adapt this line
 10007b4:	e0bffe17 	ldw	r2,-8(fp)
 10007b8:	10c03c24 	muli	r3,r2,240
 10007bc:	e0bffd17 	ldw	r2,-12(fp)
 10007c0:	1885883a 	add	r2,r3,r2
 10007c4:	1085883a 	add	r2,r2,r2
 10007c8:	1007883a 	mov	r3,r2
 10007cc:	00804134 	movhi	r2,260
 10007d0:	10a3a104 	addi	r2,r2,-29052
 10007d4:	18a1883a 	add	r16,r3,r2
 10007d8:	01803fc4 	movi	r6,255
 10007dc:	000b883a 	mov	r5,zero
 10007e0:	0009883a 	mov	r4,zero
 10007e4:	10006a40 	call	10006a4 <RGBtoBGR>
 10007e8:	8080002d 	sthio	r2,0(r16)
 10007ec:	00008306 	br	10009fc <initPictures+0x2f4>
				}
				else{
					IOWR_16DIRECT(redPicture,(i*240+j)*2,RGBtoBGR(255,255,0)); // Adapt this line
 10007f0:	e0bffe17 	ldw	r2,-8(fp)
 10007f4:	10c03c24 	muli	r3,r2,240
 10007f8:	e0bffd17 	ldw	r2,-12(fp)
 10007fc:	1885883a 	add	r2,r3,r2
 1000800:	1085883a 	add	r2,r2,r2
 1000804:	1007883a 	mov	r3,r2
 1000808:	00804074 	movhi	r2,257
 100080c:	108da104 	addi	r2,r2,13956
 1000810:	18a1883a 	add	r16,r3,r2
 1000814:	000d883a 	mov	r6,zero
 1000818:	01403fc4 	movi	r5,255
 100081c:	01003fc4 	movi	r4,255
 1000820:	10006a40 	call	10006a4 <RGBtoBGR>
 1000824:	8080002d 	sthio	r2,0(r16)
					IOWR_16DIRECT(greenPicture,(i*240+j)*2,RGBtoBGR(0,255,255)); // Adapt this line
 1000828:	e0bffe17 	ldw	r2,-8(fp)
 100082c:	10c03c24 	muli	r3,r2,240
 1000830:	e0bffd17 	ldw	r2,-12(fp)
 1000834:	1885883a 	add	r2,r3,r2
 1000838:	1085883a 	add	r2,r2,r2
 100083c:	1007883a 	mov	r3,r2
 1000840:	008041b4 	movhi	r2,262
 1000844:	10b9a104 	addi	r2,r2,-6524
 1000848:	18a1883a 	add	r16,r3,r2
 100084c:	01803fc4 	movi	r6,255
 1000850:	01403fc4 	movi	r5,255
 1000854:	0009883a 	mov	r4,zero
 1000858:	10006a40 	call	10006a4 <RGBtoBGR>
 100085c:	8080002d 	sthio	r2,0(r16)
					IOWR_16DIRECT(bluePicture,(i*240+j)*2,RGBtoBGR(255,0,255)); // Adapt this line
 1000860:	e0bffe17 	ldw	r2,-8(fp)
 1000864:	10c03c24 	muli	r3,r2,240
 1000868:	e0bffd17 	ldw	r2,-12(fp)
 100086c:	1885883a 	add	r2,r3,r2
 1000870:	1085883a 	add	r2,r2,r2
 1000874:	1007883a 	mov	r3,r2
 1000878:	00804134 	movhi	r2,260
 100087c:	10a3a104 	addi	r2,r2,-29052
 1000880:	18a1883a 	add	r16,r3,r2
 1000884:	01803fc4 	movi	r6,255
 1000888:	000b883a 	mov	r5,zero
 100088c:	01003fc4 	movi	r4,255
 1000890:	10006a40 	call	10006a4 <RGBtoBGR>
 1000894:	8080002d 	sthio	r2,0(r16)
 1000898:	00005806 	br	10009fc <initPictures+0x2f4>
				}
			}else{
				if (j > 160){
 100089c:	e0bffd17 	ldw	r2,-12(fp)
 10008a0:	10802850 	cmplti	r2,r2,161
 10008a4:	10002b1e 	bne	r2,zero,1000954 <initPictures+0x24c>
					IOWR_16DIRECT(redPicture,(i*240+j)*2,RGBtoBGR(255,128,0)); // Adapt this line
 10008a8:	e0bffe17 	ldw	r2,-8(fp)
 10008ac:	10c03c24 	muli	r3,r2,240
 10008b0:	e0bffd17 	ldw	r2,-12(fp)
 10008b4:	1885883a 	add	r2,r3,r2
 10008b8:	1085883a 	add	r2,r2,r2
 10008bc:	1007883a 	mov	r3,r2
 10008c0:	00804074 	movhi	r2,257
 10008c4:	108da104 	addi	r2,r2,13956
 10008c8:	18a1883a 	add	r16,r3,r2
 10008cc:	000d883a 	mov	r6,zero
 10008d0:	01402004 	movi	r5,128
 10008d4:	01003fc4 	movi	r4,255
 10008d8:	10006a40 	call	10006a4 <RGBtoBGR>
 10008dc:	8080002d 	sthio	r2,0(r16)
					IOWR_16DIRECT(greenPicture,(i*240+j)*2,RGBtoBGR(128,255,0)); // Adapt this line
 10008e0:	e0bffe17 	ldw	r2,-8(fp)
 10008e4:	10c03c24 	muli	r3,r2,240
 10008e8:	e0bffd17 	ldw	r2,-12(fp)
 10008ec:	1885883a 	add	r2,r3,r2
 10008f0:	1085883a 	add	r2,r2,r2
 10008f4:	1007883a 	mov	r3,r2
 10008f8:	008041b4 	movhi	r2,262
 10008fc:	10b9a104 	addi	r2,r2,-6524
 1000900:	18a1883a 	add	r16,r3,r2
 1000904:	000d883a 	mov	r6,zero
 1000908:	01403fc4 	movi	r5,255
 100090c:	01002004 	movi	r4,128
 1000910:	10006a40 	call	10006a4 <RGBtoBGR>
 1000914:	8080002d 	sthio	r2,0(r16)
					IOWR_16DIRECT(bluePicture,(i*240+j)*2,RGBtoBGR(128,0,255)); // Adapt this line
 1000918:	e0bffe17 	ldw	r2,-8(fp)
 100091c:	10c03c24 	muli	r3,r2,240
 1000920:	e0bffd17 	ldw	r2,-12(fp)
 1000924:	1885883a 	add	r2,r3,r2
 1000928:	1085883a 	add	r2,r2,r2
 100092c:	1007883a 	mov	r3,r2
 1000930:	00804134 	movhi	r2,260
 1000934:	10a3a104 	addi	r2,r2,-29052
 1000938:	18a1883a 	add	r16,r3,r2
 100093c:	01803fc4 	movi	r6,255
 1000940:	000b883a 	mov	r5,zero
 1000944:	01002004 	movi	r4,128
 1000948:	10006a40 	call	10006a4 <RGBtoBGR>
 100094c:	8080002d 	sthio	r2,0(r16)
 1000950:	00002a06 	br	10009fc <initPictures+0x2f4>
				}
				else{
					IOWR_16DIRECT(redPicture,(i*240+j)*2,RGBtoBGR(255,255,128)); // Adapt this line
 1000954:	e0bffe17 	ldw	r2,-8(fp)
 1000958:	10c03c24 	muli	r3,r2,240
 100095c:	e0bffd17 	ldw	r2,-12(fp)
 1000960:	1885883a 	add	r2,r3,r2
 1000964:	1085883a 	add	r2,r2,r2
 1000968:	1007883a 	mov	r3,r2
 100096c:	00804074 	movhi	r2,257
 1000970:	108da104 	addi	r2,r2,13956
 1000974:	18a1883a 	add	r16,r3,r2
 1000978:	01802004 	movi	r6,128
 100097c:	01403fc4 	movi	r5,255
 1000980:	01003fc4 	movi	r4,255
 1000984:	10006a40 	call	10006a4 <RGBtoBGR>
 1000988:	8080002d 	sthio	r2,0(r16)
					IOWR_16DIRECT(greenPicture,(i*240+j)*2,RGBtoBGR(0,128,255)); // Adapt this line
 100098c:	e0bffe17 	ldw	r2,-8(fp)
 1000990:	10c03c24 	muli	r3,r2,240
 1000994:	e0bffd17 	ldw	r2,-12(fp)
 1000998:	1885883a 	add	r2,r3,r2
 100099c:	1085883a 	add	r2,r2,r2
 10009a0:	1007883a 	mov	r3,r2
 10009a4:	008041b4 	movhi	r2,262
 10009a8:	10b9a104 	addi	r2,r2,-6524
 10009ac:	18a1883a 	add	r16,r3,r2
 10009b0:	01803fc4 	movi	r6,255
 10009b4:	01402004 	movi	r5,128
 10009b8:	0009883a 	mov	r4,zero
 10009bc:	10006a40 	call	10006a4 <RGBtoBGR>
 10009c0:	8080002d 	sthio	r2,0(r16)
					IOWR_16DIRECT(bluePicture,(i*240+j)*2,RGBtoBGR(255,0,128)); // Adapt this line
 10009c4:	e0bffe17 	ldw	r2,-8(fp)
 10009c8:	10c03c24 	muli	r3,r2,240
 10009cc:	e0bffd17 	ldw	r2,-12(fp)
 10009d0:	1885883a 	add	r2,r3,r2
 10009d4:	1085883a 	add	r2,r2,r2
 10009d8:	1007883a 	mov	r3,r2
 10009dc:	00804134 	movhi	r2,260
 10009e0:	10a3a104 	addi	r2,r2,-29052
 10009e4:	18a1883a 	add	r16,r3,r2
 10009e8:	01802004 	movi	r6,128
 10009ec:	000b883a 	mov	r5,zero
 10009f0:	01003fc4 	movi	r4,255
 10009f4:	10006a40 	call	10006a4 <RGBtoBGR>
 10009f8:	8080002d 	sthio	r2,0(r16)
int RGBtoBGR (uint16_t red, uint16_t green, uint16_t blue){
	return (((blue >> 3)<<11) + ((green >> 2)<<5) + (red >> 3));
}
void initPictures(){
	for (int j = 0; j < (240); j++){
		for (int i = 0; i < 320; i++){
 10009fc:	e0bffe17 	ldw	r2,-8(fp)
 1000a00:	10800044 	addi	r2,r2,1
 1000a04:	e0bffe15 	stw	r2,-8(fp)
 1000a08:	e0bffe17 	ldw	r2,-8(fp)
 1000a0c:	10805010 	cmplti	r2,r2,320
 1000a10:	103f461e 	bne	r2,zero,100072c <initPictures+0x24>
}
int RGBtoBGR (uint16_t red, uint16_t green, uint16_t blue){
	return (((blue >> 3)<<11) + ((green >> 2)<<5) + (red >> 3));
}
void initPictures(){
	for (int j = 0; j < (240); j++){
 1000a14:	e0bffd17 	ldw	r2,-12(fp)
 1000a18:	10800044 	addi	r2,r2,1
 1000a1c:	e0bffd15 	stw	r2,-12(fp)
 1000a20:	e0bffd17 	ldw	r2,-12(fp)
 1000a24:	10803c10 	cmplti	r2,r2,240
 1000a28:	103f3e1e 	bne	r2,zero,1000724 <initPictures+0x1c>
		//On the cache
		//redPicture[i] = RGBtoBGR(255,0,0);
		//greenPicture[i] = RGBtoBGR(0,255,0);
		//bluePicture[i] = RGBtoBGR(0,0,255);
	}
}
 1000a2c:	0001883a 	nop
 1000a30:	e6ffff04 	addi	sp,fp,-4
 1000a34:	dfc00217 	ldw	ra,8(sp)
 1000a38:	df000117 	ldw	fp,4(sp)
 1000a3c:	dc000017 	ldw	r16,0(sp)
 1000a40:	dec00304 	addi	sp,sp,12
 1000a44:	f800283a 	ret

01000a48 <sendPictureTab>:
void sendPictureTab(uint16_t* tab){
 1000a48:	defffc04 	addi	sp,sp,-16
 1000a4c:	dfc00315 	stw	ra,12(sp)
 1000a50:	df000215 	stw	fp,8(sp)
 1000a54:	df000204 	addi	fp,sp,8
 1000a58:	e13fff15 	stw	r4,-4(fp)
	counter = 0;
 1000a5c:	d026cb15 	stw	zero,-25812(gp)
	for (int i = 0; i < (320*240); i++){
 1000a60:	e03ffe15 	stw	zero,-8(fp)
 1000a64:	00000c06 	br	1000a98 <sendPictureTab+0x50>
		LCD_Write_Data(tab[i]);
 1000a68:	e0bffe17 	ldw	r2,-8(fp)
 1000a6c:	1085883a 	add	r2,r2,r2
 1000a70:	1007883a 	mov	r3,r2
 1000a74:	e0bfff17 	ldw	r2,-4(fp)
 1000a78:	10c5883a 	add	r2,r2,r3
 1000a7c:	1080000b 	ldhu	r2,0(r2)
 1000a80:	10bfffcc 	andi	r2,r2,65535
 1000a84:	1009883a 	mov	r4,r2
 1000a88:	10002c40 	call	10002c4 <LCD_Write_Data>
		//bluePicture[i] = RGBtoBGR(0,0,255);
	}
}
void sendPictureTab(uint16_t* tab){
	counter = 0;
	for (int i = 0; i < (320*240); i++){
 1000a8c:	e0bffe17 	ldw	r2,-8(fp)
 1000a90:	10800044 	addi	r2,r2,1
 1000a94:	e0bffe15 	stw	r2,-8(fp)
 1000a98:	e0fffe17 	ldw	r3,-8(fp)
 1000a9c:	00800074 	movhi	r2,1
 1000aa0:	108affc4 	addi	r2,r2,11263
 1000aa4:	10fff00e 	bge	r2,r3,1000a68 <sendPictureTab+0x20>
		LCD_Write_Data(tab[i]);
	}
	printf("Refresh time is %d ms\n", counter*10);
 1000aa8:	d0a6cb17 	ldw	r2,-25812(gp)
 1000aac:	108002a4 	muli	r2,r2,10
 1000ab0:	100b883a 	mov	r5,r2
 1000ab4:	01004074 	movhi	r4,257
 1000ab8:	213f4204 	addi	r4,r4,-760
 1000abc:	1000bf40 	call	1000bf4 <printf>
}
 1000ac0:	0001883a 	nop
 1000ac4:	e037883a 	mov	sp,fp
 1000ac8:	dfc00117 	ldw	ra,4(sp)
 1000acc:	df000017 	ldw	fp,0(sp)
 1000ad0:	dec00204 	addi	sp,sp,8
 1000ad4:	f800283a 	ret

01000ad8 <main>:
int main(){
 1000ad8:	defffe04 	addi	sp,sp,-8
 1000adc:	dfc00115 	stw	ra,4(sp)
 1000ae0:	df000015 	stw	fp,0(sp)
 1000ae4:	d839883a 	mov	fp,sp

	printf("Lets start counting \n");
 1000ae8:	01004074 	movhi	r4,257
 1000aec:	213f4804 	addi	r4,r4,-736
 1000af0:	1000cf00 	call	1000cf0 <puts>
	// set all to output

	IOWR_32DIRECT(GPIO_PARALLEL_PORT_0_BASE, 0b000*4, 0xFFFFFFFF); //Set to outputs
 1000af4:	00ffffc4 	movi	r3,-1
 1000af8:	00808034 	movhi	r2,512
 1000afc:	10841004 	addi	r2,r2,4160
 1000b00:	10c00035 	stwio	r3,0(r2)
	IOWR_32DIRECT(GPIO_PARALLEL_PORT_0_BASE, 0b010*4, 0xFFFFFFFF); //Set all to 1
 1000b04:	00ffffc4 	movi	r3,-1
 1000b08:	00808034 	movhi	r2,512
 1000b0c:	10841204 	addi	r2,r2,4168
 1000b10:	10c00035 	stwio	r3,0(r2)

	alt_irq_register(TIMER_0_IRQ,(void*)2,(alt_isr_func)timer_interrupt);
 1000b14:	01804034 	movhi	r6,256
 1000b18:	31819804 	addi	r6,r6,1632
 1000b1c:	01400084 	movi	r5,2
 1000b20:	01000044 	movi	r4,1
 1000b24:	100d7080 	call	100d708 <alt_irq_register>

	IOWR_16DIRECT(TIMER_0_BASE,4,0b111); // enbale timer 0
 1000b28:	00c001c4 	movi	r3,7
 1000b2c:	00808034 	movhi	r2,512
 1000b30:	10840904 	addi	r2,r2,4132
 1000b34:	10c0002d 	sthio	r3,0(r2)
	initPictures();
 1000b38:	10007080 	call	1000708 <initPictures>
	init_LCD();
 1000b3c:	10002f80 	call	10002f8 <init_LCD>


	LCD_Write_Command(0x002C);
 1000b40:	01000b04 	movi	r4,44
 1000b44:	10002900 	call	1000290 <LCD_Write_Command>

	printf("addr = %d \n", redPicture);
 1000b48:	01404074 	movhi	r5,257
 1000b4c:	294da104 	addi	r5,r5,13956
 1000b50:	01004074 	movhi	r4,257
 1000b54:	213f4e04 	addi	r4,r4,-712
 1000b58:	1000bf40 	call	1000bf4 <printf>
	printf("& = %d \n", &redPicture);
 1000b5c:	01404074 	movhi	r5,257
 1000b60:	294da104 	addi	r5,r5,13956
 1000b64:	01004074 	movhi	r4,257
 1000b68:	213f5104 	addi	r4,r4,-700
 1000b6c:	1000bf40 	call	1000bf4 <printf>

	LCD_Write_Data(0x0000);
 1000b70:	0009883a 	mov	r4,zero
 1000b74:	10002c40 	call	10002c4 <LCD_Write_Data>
	IOWR_32DIRECT(DMA_LCD_0_BASE,0b010*4,greenPicture); //Give the picture data pointer
 1000b78:	00c041b4 	movhi	r3,262
 1000b7c:	18f9a104 	addi	r3,r3,-6524
 1000b80:	00808034 	movhi	r2,512
 1000b84:	10840204 	addi	r2,r2,4104
 1000b88:	10c00035 	stwio	r3,0(r2)
	IOWR_32DIRECT(DMA_LCD_0_BASE,0b011*4,320*240*2); //Give the size
 1000b8c:	00c000b4 	movhi	r3,2
 1000b90:	18d60004 	addi	r3,r3,22528
 1000b94:	00808034 	movhi	r2,512
 1000b98:	10840304 	addi	r2,r2,4108
 1000b9c:	10c00035 	stwio	r3,0(r2)
	IOWR_32DIRECT(DMA_LCD_0_BASE,0b100*4,0b001); //Start transfer
 1000ba0:	00c00044 	movi	r3,1
 1000ba4:	00808034 	movhi	r2,512
 1000ba8:	10840404 	addi	r2,r2,4112
 1000bac:	10c00035 	stwio	r3,0(r2)
	while(1){

		//sendPictureTab(redPicture);
		//sendPictureTab(bluePicture);

		IOWR_32DIRECT(GPIO_PARALLEL_PORT_0_BASE, 0b010*4, counter);// write counter value on the parallel port;
 1000bb0:	d0e6cb17 	ldw	r3,-25812(gp)
 1000bb4:	00808034 	movhi	r2,512
 1000bb8:	10841204 	addi	r2,r2,4168
 1000bbc:	10c00035 	stwio	r3,0(r2)
		//counter++;
		//printf("counter = %d \n", counter);
	}
 1000bc0:	003ffb06 	br	1000bb0 <main+0xd8>

01000bc4 <_printf_r>:
 1000bc4:	defffd04 	addi	sp,sp,-12
 1000bc8:	2805883a 	mov	r2,r5
 1000bcc:	dfc00015 	stw	ra,0(sp)
 1000bd0:	d9800115 	stw	r6,4(sp)
 1000bd4:	d9c00215 	stw	r7,8(sp)
 1000bd8:	21400217 	ldw	r5,8(r4)
 1000bdc:	d9c00104 	addi	r7,sp,4
 1000be0:	100d883a 	mov	r6,r2
 1000be4:	1000d9c0 	call	1000d9c <___vfprintf_internal_r>
 1000be8:	dfc00017 	ldw	ra,0(sp)
 1000bec:	dec00304 	addi	sp,sp,12
 1000bf0:	f800283a 	ret

01000bf4 <printf>:
 1000bf4:	defffc04 	addi	sp,sp,-16
 1000bf8:	dfc00015 	stw	ra,0(sp)
 1000bfc:	d9400115 	stw	r5,4(sp)
 1000c00:	d9800215 	stw	r6,8(sp)
 1000c04:	d9c00315 	stw	r7,12(sp)
 1000c08:	00804074 	movhi	r2,257
 1000c0c:	1086be04 	addi	r2,r2,6904
 1000c10:	10800017 	ldw	r2,0(r2)
 1000c14:	200b883a 	mov	r5,r4
 1000c18:	d9800104 	addi	r6,sp,4
 1000c1c:	11000217 	ldw	r4,8(r2)
 1000c20:	1002f940 	call	1002f94 <__vfprintf_internal>
 1000c24:	dfc00017 	ldw	ra,0(sp)
 1000c28:	dec00404 	addi	sp,sp,16
 1000c2c:	f800283a 	ret

01000c30 <_puts_r>:
 1000c30:	defff604 	addi	sp,sp,-40
 1000c34:	dc000715 	stw	r16,28(sp)
 1000c38:	2021883a 	mov	r16,r4
 1000c3c:	2809883a 	mov	r4,r5
 1000c40:	dc400815 	stw	r17,32(sp)
 1000c44:	dfc00915 	stw	ra,36(sp)
 1000c48:	2823883a 	mov	r17,r5
 1000c4c:	1000d040 	call	1000d04 <strlen>
 1000c50:	10c00044 	addi	r3,r2,1
 1000c54:	d8800115 	stw	r2,4(sp)
 1000c58:	00804074 	movhi	r2,257
 1000c5c:	10bf5404 	addi	r2,r2,-688
 1000c60:	d8800215 	stw	r2,8(sp)
 1000c64:	00800044 	movi	r2,1
 1000c68:	d8800315 	stw	r2,12(sp)
 1000c6c:	00800084 	movi	r2,2
 1000c70:	dc400015 	stw	r17,0(sp)
 1000c74:	d8c00615 	stw	r3,24(sp)
 1000c78:	dec00415 	stw	sp,16(sp)
 1000c7c:	d8800515 	stw	r2,20(sp)
 1000c80:	80000226 	beq	r16,zero,1000c8c <_puts_r+0x5c>
 1000c84:	80800e17 	ldw	r2,56(r16)
 1000c88:	10001426 	beq	r2,zero,1000cdc <_puts_r+0xac>
 1000c8c:	81400217 	ldw	r5,8(r16)
 1000c90:	2880030b 	ldhu	r2,12(r5)
 1000c94:	10c8000c 	andi	r3,r2,8192
 1000c98:	1800061e 	bne	r3,zero,1000cb4 <_puts_r+0x84>
 1000c9c:	29001917 	ldw	r4,100(r5)
 1000ca0:	00f7ffc4 	movi	r3,-8193
 1000ca4:	10880014 	ori	r2,r2,8192
 1000ca8:	20c6703a 	and	r3,r4,r3
 1000cac:	2880030d 	sth	r2,12(r5)
 1000cb0:	28c01915 	stw	r3,100(r5)
 1000cb4:	d9800404 	addi	r6,sp,16
 1000cb8:	8009883a 	mov	r4,r16
 1000cbc:	10054c40 	call	10054c4 <__sfvwrite_r>
 1000cc0:	1000091e 	bne	r2,zero,1000ce8 <_puts_r+0xb8>
 1000cc4:	00800284 	movi	r2,10
 1000cc8:	dfc00917 	ldw	ra,36(sp)
 1000ccc:	dc400817 	ldw	r17,32(sp)
 1000cd0:	dc000717 	ldw	r16,28(sp)
 1000cd4:	dec00a04 	addi	sp,sp,40
 1000cd8:	f800283a 	ret
 1000cdc:	8009883a 	mov	r4,r16
 1000ce0:	10050400 	call	1005040 <__sinit>
 1000ce4:	003fe906 	br	1000c8c <_puts_r+0x5c>
 1000ce8:	00bfffc4 	movi	r2,-1
 1000cec:	003ff606 	br	1000cc8 <_puts_r+0x98>

01000cf0 <puts>:
 1000cf0:	00804074 	movhi	r2,257
 1000cf4:	1086be04 	addi	r2,r2,6904
 1000cf8:	200b883a 	mov	r5,r4
 1000cfc:	11000017 	ldw	r4,0(r2)
 1000d00:	1000c301 	jmpi	1000c30 <_puts_r>

01000d04 <strlen>:
 1000d04:	208000cc 	andi	r2,r4,3
 1000d08:	10002026 	beq	r2,zero,1000d8c <strlen+0x88>
 1000d0c:	20800007 	ldb	r2,0(r4)
 1000d10:	10002026 	beq	r2,zero,1000d94 <strlen+0x90>
 1000d14:	2005883a 	mov	r2,r4
 1000d18:	00000206 	br	1000d24 <strlen+0x20>
 1000d1c:	10c00007 	ldb	r3,0(r2)
 1000d20:	18001826 	beq	r3,zero,1000d84 <strlen+0x80>
 1000d24:	10800044 	addi	r2,r2,1
 1000d28:	10c000cc 	andi	r3,r2,3
 1000d2c:	183ffb1e 	bne	r3,zero,1000d1c <strlen+0x18>
 1000d30:	10c00017 	ldw	r3,0(r2)
 1000d34:	01ffbff4 	movhi	r7,65279
 1000d38:	39ffbfc4 	addi	r7,r7,-257
 1000d3c:	00ca303a 	nor	r5,zero,r3
 1000d40:	01a02074 	movhi	r6,32897
 1000d44:	19c7883a 	add	r3,r3,r7
 1000d48:	31a02004 	addi	r6,r6,-32640
 1000d4c:	1946703a 	and	r3,r3,r5
 1000d50:	1986703a 	and	r3,r3,r6
 1000d54:	1800091e 	bne	r3,zero,1000d7c <strlen+0x78>
 1000d58:	10800104 	addi	r2,r2,4
 1000d5c:	10c00017 	ldw	r3,0(r2)
 1000d60:	19cb883a 	add	r5,r3,r7
 1000d64:	00c6303a 	nor	r3,zero,r3
 1000d68:	28c6703a 	and	r3,r5,r3
 1000d6c:	1986703a 	and	r3,r3,r6
 1000d70:	183ff926 	beq	r3,zero,1000d58 <strlen+0x54>
 1000d74:	00000106 	br	1000d7c <strlen+0x78>
 1000d78:	10800044 	addi	r2,r2,1
 1000d7c:	10c00007 	ldb	r3,0(r2)
 1000d80:	183ffd1e 	bne	r3,zero,1000d78 <strlen+0x74>
 1000d84:	1105c83a 	sub	r2,r2,r4
 1000d88:	f800283a 	ret
 1000d8c:	2005883a 	mov	r2,r4
 1000d90:	003fe706 	br	1000d30 <strlen+0x2c>
 1000d94:	0005883a 	mov	r2,zero
 1000d98:	f800283a 	ret

01000d9c <___vfprintf_internal_r>:
 1000d9c:	deffb804 	addi	sp,sp,-288
 1000da0:	dfc04715 	stw	ra,284(sp)
 1000da4:	ddc04515 	stw	r23,276(sp)
 1000da8:	dd404315 	stw	r21,268(sp)
 1000dac:	d9002c15 	stw	r4,176(sp)
 1000db0:	282f883a 	mov	r23,r5
 1000db4:	302b883a 	mov	r21,r6
 1000db8:	d9c02d15 	stw	r7,180(sp)
 1000dbc:	df004615 	stw	fp,280(sp)
 1000dc0:	dd804415 	stw	r22,272(sp)
 1000dc4:	dd004215 	stw	r20,264(sp)
 1000dc8:	dcc04115 	stw	r19,260(sp)
 1000dcc:	dc804015 	stw	r18,256(sp)
 1000dd0:	dc403f15 	stw	r17,252(sp)
 1000dd4:	dc003e15 	stw	r16,248(sp)
 1000dd8:	1005bb40 	call	1005bb4 <_localeconv_r>
 1000ddc:	10800017 	ldw	r2,0(r2)
 1000de0:	1009883a 	mov	r4,r2
 1000de4:	d8803415 	stw	r2,208(sp)
 1000de8:	1000d040 	call	1000d04 <strlen>
 1000dec:	d8803715 	stw	r2,220(sp)
 1000df0:	d8802c17 	ldw	r2,176(sp)
 1000df4:	10000226 	beq	r2,zero,1000e00 <___vfprintf_internal_r+0x64>
 1000df8:	10800e17 	ldw	r2,56(r2)
 1000dfc:	1000f926 	beq	r2,zero,10011e4 <___vfprintf_internal_r+0x448>
 1000e00:	b880030b 	ldhu	r2,12(r23)
 1000e04:	10c8000c 	andi	r3,r2,8192
 1000e08:	1800061e 	bne	r3,zero,1000e24 <___vfprintf_internal_r+0x88>
 1000e0c:	b9001917 	ldw	r4,100(r23)
 1000e10:	00f7ffc4 	movi	r3,-8193
 1000e14:	10880014 	ori	r2,r2,8192
 1000e18:	20c6703a 	and	r3,r4,r3
 1000e1c:	b880030d 	sth	r2,12(r23)
 1000e20:	b8c01915 	stw	r3,100(r23)
 1000e24:	10c0020c 	andi	r3,r2,8
 1000e28:	1800c126 	beq	r3,zero,1001130 <___vfprintf_internal_r+0x394>
 1000e2c:	b8c00417 	ldw	r3,16(r23)
 1000e30:	1800bf26 	beq	r3,zero,1001130 <___vfprintf_internal_r+0x394>
 1000e34:	1080068c 	andi	r2,r2,26
 1000e38:	00c00284 	movi	r3,10
 1000e3c:	10c0c426 	beq	r2,r3,1001150 <___vfprintf_internal_r+0x3b4>
 1000e40:	d8c00404 	addi	r3,sp,16
 1000e44:	05004074 	movhi	r20,257
 1000e48:	d9001e04 	addi	r4,sp,120
 1000e4c:	a53f6584 	addi	r20,r20,-618
 1000e50:	d8c01e15 	stw	r3,120(sp)
 1000e54:	d8002015 	stw	zero,128(sp)
 1000e58:	d8001f15 	stw	zero,124(sp)
 1000e5c:	d8003315 	stw	zero,204(sp)
 1000e60:	d8003615 	stw	zero,216(sp)
 1000e64:	d8003815 	stw	zero,224(sp)
 1000e68:	1811883a 	mov	r8,r3
 1000e6c:	d8003915 	stw	zero,228(sp)
 1000e70:	d8003a15 	stw	zero,232(sp)
 1000e74:	d8002f15 	stw	zero,188(sp)
 1000e78:	d9002815 	stw	r4,160(sp)
 1000e7c:	a8800007 	ldb	r2,0(r21)
 1000e80:	10027b26 	beq	r2,zero,1001870 <___vfprintf_internal_r+0xad4>
 1000e84:	00c00944 	movi	r3,37
 1000e88:	a821883a 	mov	r16,r21
 1000e8c:	10c0021e 	bne	r2,r3,1000e98 <___vfprintf_internal_r+0xfc>
 1000e90:	00001406 	br	1000ee4 <___vfprintf_internal_r+0x148>
 1000e94:	10c00326 	beq	r2,r3,1000ea4 <___vfprintf_internal_r+0x108>
 1000e98:	84000044 	addi	r16,r16,1
 1000e9c:	80800007 	ldb	r2,0(r16)
 1000ea0:	103ffc1e 	bne	r2,zero,1000e94 <___vfprintf_internal_r+0xf8>
 1000ea4:	8563c83a 	sub	r17,r16,r21
 1000ea8:	88000e26 	beq	r17,zero,1000ee4 <___vfprintf_internal_r+0x148>
 1000eac:	d8c02017 	ldw	r3,128(sp)
 1000eb0:	d8801f17 	ldw	r2,124(sp)
 1000eb4:	45400015 	stw	r21,0(r8)
 1000eb8:	1c47883a 	add	r3,r3,r17
 1000ebc:	10800044 	addi	r2,r2,1
 1000ec0:	d8c02015 	stw	r3,128(sp)
 1000ec4:	44400115 	stw	r17,4(r8)
 1000ec8:	d8801f15 	stw	r2,124(sp)
 1000ecc:	00c001c4 	movi	r3,7
 1000ed0:	1880a716 	blt	r3,r2,1001170 <___vfprintf_internal_r+0x3d4>
 1000ed4:	42000204 	addi	r8,r8,8
 1000ed8:	d9402f17 	ldw	r5,188(sp)
 1000edc:	2c4b883a 	add	r5,r5,r17
 1000ee0:	d9402f15 	stw	r5,188(sp)
 1000ee4:	80800007 	ldb	r2,0(r16)
 1000ee8:	1000a826 	beq	r2,zero,100118c <___vfprintf_internal_r+0x3f0>
 1000eec:	84400047 	ldb	r17,1(r16)
 1000ef0:	00bfffc4 	movi	r2,-1
 1000ef4:	85400044 	addi	r21,r16,1
 1000ef8:	d8002785 	stb	zero,158(sp)
 1000efc:	0007883a 	mov	r3,zero
 1000f00:	000f883a 	mov	r7,zero
 1000f04:	d8802915 	stw	r2,164(sp)
 1000f08:	d8003115 	stw	zero,196(sp)
 1000f0c:	0025883a 	mov	r18,zero
 1000f10:	01401604 	movi	r5,88
 1000f14:	01800244 	movi	r6,9
 1000f18:	02800a84 	movi	r10,42
 1000f1c:	02401b04 	movi	r9,108
 1000f20:	ad400044 	addi	r21,r21,1
 1000f24:	88bff804 	addi	r2,r17,-32
 1000f28:	28830436 	bltu	r5,r2,1001b3c <___vfprintf_internal_r+0xda0>
 1000f2c:	100490ba 	slli	r2,r2,2
 1000f30:	01004034 	movhi	r4,256
 1000f34:	2103d104 	addi	r4,r4,3908
 1000f38:	1105883a 	add	r2,r2,r4
 1000f3c:	10800017 	ldw	r2,0(r2)
 1000f40:	1000683a 	jmp	r2
 1000f44:	01001a5c 	xori	r4,zero,105
 1000f48:	01001b3c 	xorhi	r4,zero,108
 1000f4c:	01001b3c 	xorhi	r4,zero,108
 1000f50:	01001a7c 	xorhi	r4,zero,105
 1000f54:	01001b3c 	xorhi	r4,zero,108
 1000f58:	01001b3c 	xorhi	r4,zero,108
 1000f5c:	01001b3c 	xorhi	r4,zero,108
 1000f60:	01001b3c 	xorhi	r4,zero,108
 1000f64:	01001b3c 	xorhi	r4,zero,108
 1000f68:	01001b3c 	xorhi	r4,zero,108
 1000f6c:	010011f0 	cmpltui	r4,zero,71
 1000f70:	01001998 	cmpnei	r4,zero,102
 1000f74:	01001b3c 	xorhi	r4,zero,108
 1000f78:	010010b8 	rdprs	r4,zero,66
 1000f7c:	01001218 	cmpnei	r4,zero,72
 1000f80:	01001b3c 	xorhi	r4,zero,108
 1000f84:	01001258 	cmpnei	r4,zero,73
 1000f88:	01001264 	muli	r4,zero,73
 1000f8c:	01001264 	muli	r4,zero,73
 1000f90:	01001264 	muli	r4,zero,73
 1000f94:	01001264 	muli	r4,zero,73
 1000f98:	01001264 	muli	r4,zero,73
 1000f9c:	01001264 	muli	r4,zero,73
 1000fa0:	01001264 	muli	r4,zero,73
 1000fa4:	01001264 	muli	r4,zero,73
 1000fa8:	01001264 	muli	r4,zero,73
 1000fac:	01001b3c 	xorhi	r4,zero,108
 1000fb0:	01001b3c 	xorhi	r4,zero,108
 1000fb4:	01001b3c 	xorhi	r4,zero,108
 1000fb8:	01001b3c 	xorhi	r4,zero,108
 1000fbc:	01001b3c 	xorhi	r4,zero,108
 1000fc0:	01001b3c 	xorhi	r4,zero,108
 1000fc4:	01001b3c 	xorhi	r4,zero,108
 1000fc8:	01001b3c 	xorhi	r4,zero,108
 1000fcc:	01001b3c 	xorhi	r4,zero,108
 1000fd0:	01001b3c 	xorhi	r4,zero,108
 1000fd4:	01001298 	cmpnei	r4,zero,74
 1000fd8:	01001354 	movui	r4,77
 1000fdc:	01001b3c 	xorhi	r4,zero,108
 1000fe0:	01001354 	movui	r4,77
 1000fe4:	01001b3c 	xorhi	r4,zero,108
 1000fe8:	01001b3c 	xorhi	r4,zero,108
 1000fec:	01001b3c 	xorhi	r4,zero,108
 1000ff0:	01001b3c 	xorhi	r4,zero,108
 1000ff4:	010013f4 	movhi	r4,79
 1000ff8:	01001b3c 	xorhi	r4,zero,108
 1000ffc:	01001b3c 	xorhi	r4,zero,108
 1001000:	01001400 	call	100140 <__alt_mem_SDRAM_controller-0xeffec0>
 1001004:	01001b3c 	xorhi	r4,zero,108
 1001008:	01001b3c 	xorhi	r4,zero,108
 100100c:	01001b3c 	xorhi	r4,zero,108
 1001010:	01001b3c 	xorhi	r4,zero,108
 1001014:	01001b3c 	xorhi	r4,zero,108
 1001018:	01001878 	rdprs	r4,zero,97
 100101c:	01001b3c 	xorhi	r4,zero,108
 1001020:	01001b3c 	xorhi	r4,zero,108
 1001024:	010018d8 	cmpnei	r4,zero,99
 1001028:	01001b3c 	xorhi	r4,zero,108
 100102c:	01001b3c 	xorhi	r4,zero,108
 1001030:	01001b3c 	xorhi	r4,zero,108
 1001034:	01001b3c 	xorhi	r4,zero,108
 1001038:	01001b3c 	xorhi	r4,zero,108
 100103c:	01001b3c 	xorhi	r4,zero,108
 1001040:	01001b3c 	xorhi	r4,zero,108
 1001044:	01001b3c 	xorhi	r4,zero,108
 1001048:	01001b3c 	xorhi	r4,zero,108
 100104c:	01001b3c 	xorhi	r4,zero,108
 1001050:	01001ae8 	cmpgeui	r4,zero,107
 1001054:	01001a88 	cmpgei	r4,zero,106
 1001058:	01001354 	movui	r4,77
 100105c:	01001354 	movui	r4,77
 1001060:	01001354 	movui	r4,77
 1001064:	01001a98 	cmpnei	r4,zero,106
 1001068:	01001a88 	cmpgei	r4,zero,106
 100106c:	01001b3c 	xorhi	r4,zero,108
 1001070:	01001b3c 	xorhi	r4,zero,108
 1001074:	01001aa4 	muli	r4,zero,106
 1001078:	01001b3c 	xorhi	r4,zero,108
 100107c:	01001ab4 	movhi	r4,106
 1001080:	01001988 	cmpgei	r4,zero,102
 1001084:	010010c4 	movi	r4,67
 1001088:	010019a8 	cmpgeui	r4,zero,102
 100108c:	01001b3c 	xorhi	r4,zero,108
 1001090:	010019b4 	movhi	r4,102
 1001094:	01001b3c 	xorhi	r4,zero,108
 1001098:	01001a10 	cmplti	r4,zero,104
 100109c:	01001b3c 	xorhi	r4,zero,108
 10010a0:	01001b3c 	xorhi	r4,zero,108
 10010a4:	01001a20 	cmpeqi	r4,zero,104
 10010a8:	d9003117 	ldw	r4,196(sp)
 10010ac:	d8802d15 	stw	r2,180(sp)
 10010b0:	0109c83a 	sub	r4,zero,r4
 10010b4:	d9003115 	stw	r4,196(sp)
 10010b8:	94800114 	ori	r18,r18,4
 10010bc:	ac400007 	ldb	r17,0(r21)
 10010c0:	003f9706 	br	1000f20 <___vfprintf_internal_r+0x184>
 10010c4:	00800c04 	movi	r2,48
 10010c8:	d9002d17 	ldw	r4,180(sp)
 10010cc:	d9402917 	ldw	r5,164(sp)
 10010d0:	d8802705 	stb	r2,156(sp)
 10010d4:	00801e04 	movi	r2,120
 10010d8:	d8802745 	stb	r2,157(sp)
 10010dc:	d8002785 	stb	zero,158(sp)
 10010e0:	20c00104 	addi	r3,r4,4
 10010e4:	24c00017 	ldw	r19,0(r4)
 10010e8:	002d883a 	mov	r22,zero
 10010ec:	90800094 	ori	r2,r18,2
 10010f0:	28029a16 	blt	r5,zero,1001b5c <___vfprintf_internal_r+0xdc0>
 10010f4:	00bfdfc4 	movi	r2,-129
 10010f8:	90a4703a 	and	r18,r18,r2
 10010fc:	d8c02d15 	stw	r3,180(sp)
 1001100:	94800094 	ori	r18,r18,2
 1001104:	9802871e 	bne	r19,zero,1001b24 <___vfprintf_internal_r+0xd88>
 1001108:	00804074 	movhi	r2,257
 100110c:	10bf5e04 	addi	r2,r2,-648
 1001110:	d8803915 	stw	r2,228(sp)
 1001114:	04401e04 	movi	r17,120
 1001118:	d8802917 	ldw	r2,164(sp)
 100111c:	0039883a 	mov	fp,zero
 1001120:	1001e926 	beq	r2,zero,10018c8 <___vfprintf_internal_r+0xb2c>
 1001124:	0027883a 	mov	r19,zero
 1001128:	002d883a 	mov	r22,zero
 100112c:	00020506 	br	1001944 <___vfprintf_internal_r+0xba8>
 1001130:	d9002c17 	ldw	r4,176(sp)
 1001134:	b80b883a 	mov	r5,r23
 1001138:	100306c0 	call	100306c <__swsetup_r>
 100113c:	1005ac1e 	bne	r2,zero,10027f0 <___vfprintf_internal_r+0x1a54>
 1001140:	b880030b 	ldhu	r2,12(r23)
 1001144:	00c00284 	movi	r3,10
 1001148:	1080068c 	andi	r2,r2,26
 100114c:	10ff3c1e 	bne	r2,r3,1000e40 <___vfprintf_internal_r+0xa4>
 1001150:	b880038f 	ldh	r2,14(r23)
 1001154:	103f3a16 	blt	r2,zero,1000e40 <___vfprintf_internal_r+0xa4>
 1001158:	d9c02d17 	ldw	r7,180(sp)
 100115c:	d9002c17 	ldw	r4,176(sp)
 1001160:	a80d883a 	mov	r6,r21
 1001164:	b80b883a 	mov	r5,r23
 1001168:	1002fb00 	call	1002fb0 <__sbprintf>
 100116c:	00001106 	br	10011b4 <___vfprintf_internal_r+0x418>
 1001170:	d9002c17 	ldw	r4,176(sp)
 1001174:	d9801e04 	addi	r6,sp,120
 1001178:	b80b883a 	mov	r5,r23
 100117c:	10083980 	call	1008398 <__sprint_r>
 1001180:	1000081e 	bne	r2,zero,10011a4 <___vfprintf_internal_r+0x408>
 1001184:	da000404 	addi	r8,sp,16
 1001188:	003f5306 	br	1000ed8 <___vfprintf_internal_r+0x13c>
 100118c:	d8802017 	ldw	r2,128(sp)
 1001190:	10000426 	beq	r2,zero,10011a4 <___vfprintf_internal_r+0x408>
 1001194:	d9002c17 	ldw	r4,176(sp)
 1001198:	d9801e04 	addi	r6,sp,120
 100119c:	b80b883a 	mov	r5,r23
 10011a0:	10083980 	call	1008398 <__sprint_r>
 10011a4:	b880030b 	ldhu	r2,12(r23)
 10011a8:	1080100c 	andi	r2,r2,64
 10011ac:	1005901e 	bne	r2,zero,10027f0 <___vfprintf_internal_r+0x1a54>
 10011b0:	d8802f17 	ldw	r2,188(sp)
 10011b4:	dfc04717 	ldw	ra,284(sp)
 10011b8:	df004617 	ldw	fp,280(sp)
 10011bc:	ddc04517 	ldw	r23,276(sp)
 10011c0:	dd804417 	ldw	r22,272(sp)
 10011c4:	dd404317 	ldw	r21,268(sp)
 10011c8:	dd004217 	ldw	r20,264(sp)
 10011cc:	dcc04117 	ldw	r19,260(sp)
 10011d0:	dc804017 	ldw	r18,256(sp)
 10011d4:	dc403f17 	ldw	r17,252(sp)
 10011d8:	dc003e17 	ldw	r16,248(sp)
 10011dc:	dec04804 	addi	sp,sp,288
 10011e0:	f800283a 	ret
 10011e4:	d9002c17 	ldw	r4,176(sp)
 10011e8:	10050400 	call	1005040 <__sinit>
 10011ec:	003f0406 	br	1000e00 <___vfprintf_internal_r+0x64>
 10011f0:	d8802d17 	ldw	r2,180(sp)
 10011f4:	d9002d17 	ldw	r4,180(sp)
 10011f8:	10800017 	ldw	r2,0(r2)
 10011fc:	d8803115 	stw	r2,196(sp)
 1001200:	20800104 	addi	r2,r4,4
 1001204:	d9003117 	ldw	r4,196(sp)
 1001208:	203fa716 	blt	r4,zero,10010a8 <___vfprintf_internal_r+0x30c>
 100120c:	d8802d15 	stw	r2,180(sp)
 1001210:	ac400007 	ldb	r17,0(r21)
 1001214:	003f4206 	br	1000f20 <___vfprintf_internal_r+0x184>
 1001218:	ac400007 	ldb	r17,0(r21)
 100121c:	aac00044 	addi	r11,r21,1
 1001220:	8a872826 	beq	r17,r10,1002ec4 <___vfprintf_internal_r+0x2128>
 1001224:	88bff404 	addi	r2,r17,-48
 1001228:	0009883a 	mov	r4,zero
 100122c:	30867d36 	bltu	r6,r2,1002c24 <___vfprintf_internal_r+0x1e88>
 1001230:	5c400007 	ldb	r17,0(r11)
 1001234:	210002a4 	muli	r4,r4,10
 1001238:	5d400044 	addi	r21,r11,1
 100123c:	a817883a 	mov	r11,r21
 1001240:	2089883a 	add	r4,r4,r2
 1001244:	88bff404 	addi	r2,r17,-48
 1001248:	30bff92e 	bgeu	r6,r2,1001230 <___vfprintf_internal_r+0x494>
 100124c:	2005c916 	blt	r4,zero,1002974 <___vfprintf_internal_r+0x1bd8>
 1001250:	d9002915 	stw	r4,164(sp)
 1001254:	003f3306 	br	1000f24 <___vfprintf_internal_r+0x188>
 1001258:	94802014 	ori	r18,r18,128
 100125c:	ac400007 	ldb	r17,0(r21)
 1001260:	003f2f06 	br	1000f20 <___vfprintf_internal_r+0x184>
 1001264:	a809883a 	mov	r4,r21
 1001268:	d8003115 	stw	zero,196(sp)
 100126c:	88bff404 	addi	r2,r17,-48
 1001270:	0017883a 	mov	r11,zero
 1001274:	24400007 	ldb	r17,0(r4)
 1001278:	5ac002a4 	muli	r11,r11,10
 100127c:	ad400044 	addi	r21,r21,1
 1001280:	a809883a 	mov	r4,r21
 1001284:	12d7883a 	add	r11,r2,r11
 1001288:	88bff404 	addi	r2,r17,-48
 100128c:	30bff92e 	bgeu	r6,r2,1001274 <___vfprintf_internal_r+0x4d8>
 1001290:	dac03115 	stw	r11,196(sp)
 1001294:	003f2306 	br	1000f24 <___vfprintf_internal_r+0x188>
 1001298:	18c03fcc 	andi	r3,r3,255
 100129c:	18072b1e 	bne	r3,zero,1002f4c <___vfprintf_internal_r+0x21b0>
 10012a0:	94800414 	ori	r18,r18,16
 10012a4:	9080080c 	andi	r2,r18,32
 10012a8:	10037b26 	beq	r2,zero,1002098 <___vfprintf_internal_r+0x12fc>
 10012ac:	d9402d17 	ldw	r5,180(sp)
 10012b0:	28800117 	ldw	r2,4(r5)
 10012b4:	2cc00017 	ldw	r19,0(r5)
 10012b8:	29400204 	addi	r5,r5,8
 10012bc:	d9402d15 	stw	r5,180(sp)
 10012c0:	102d883a 	mov	r22,r2
 10012c4:	10044b16 	blt	r2,zero,10023f4 <___vfprintf_internal_r+0x1658>
 10012c8:	d9402917 	ldw	r5,164(sp)
 10012cc:	df002783 	ldbu	fp,158(sp)
 10012d0:	2803bc16 	blt	r5,zero,10021c4 <___vfprintf_internal_r+0x1428>
 10012d4:	00ffdfc4 	movi	r3,-129
 10012d8:	9d84b03a 	or	r2,r19,r22
 10012dc:	90e4703a 	and	r18,r18,r3
 10012e0:	10017726 	beq	r2,zero,10018c0 <___vfprintf_internal_r+0xb24>
 10012e4:	b0038326 	beq	r22,zero,10020f4 <___vfprintf_internal_r+0x1358>
 10012e8:	dc402a15 	stw	r17,168(sp)
 10012ec:	dc001e04 	addi	r16,sp,120
 10012f0:	b023883a 	mov	r17,r22
 10012f4:	402d883a 	mov	r22,r8
 10012f8:	9809883a 	mov	r4,r19
 10012fc:	880b883a 	mov	r5,r17
 1001300:	01800284 	movi	r6,10
 1001304:	000f883a 	mov	r7,zero
 1001308:	100a7900 	call	100a790 <__umoddi3>
 100130c:	10800c04 	addi	r2,r2,48
 1001310:	843fffc4 	addi	r16,r16,-1
 1001314:	9809883a 	mov	r4,r19
 1001318:	880b883a 	mov	r5,r17
 100131c:	80800005 	stb	r2,0(r16)
 1001320:	01800284 	movi	r6,10
 1001324:	000f883a 	mov	r7,zero
 1001328:	100a2180 	call	100a218 <__udivdi3>
 100132c:	1027883a 	mov	r19,r2
 1001330:	10c4b03a 	or	r2,r2,r3
 1001334:	1823883a 	mov	r17,r3
 1001338:	103fef1e 	bne	r2,zero,10012f8 <___vfprintf_internal_r+0x55c>
 100133c:	d8c02817 	ldw	r3,160(sp)
 1001340:	dc402a17 	ldw	r17,168(sp)
 1001344:	b011883a 	mov	r8,r22
 1001348:	1c07c83a 	sub	r3,r3,r16
 100134c:	d8c02e15 	stw	r3,184(sp)
 1001350:	00005906 	br	10014b8 <___vfprintf_internal_r+0x71c>
 1001354:	18c03fcc 	andi	r3,r3,255
 1001358:	1806fa1e 	bne	r3,zero,1002f44 <___vfprintf_internal_r+0x21a8>
 100135c:	9080020c 	andi	r2,r18,8
 1001360:	10048a26 	beq	r2,zero,100258c <___vfprintf_internal_r+0x17f0>
 1001364:	d8c02d17 	ldw	r3,180(sp)
 1001368:	d9002d17 	ldw	r4,180(sp)
 100136c:	d9402d17 	ldw	r5,180(sp)
 1001370:	18c00017 	ldw	r3,0(r3)
 1001374:	21000117 	ldw	r4,4(r4)
 1001378:	29400204 	addi	r5,r5,8
 100137c:	d8c03615 	stw	r3,216(sp)
 1001380:	d9003815 	stw	r4,224(sp)
 1001384:	d9402d15 	stw	r5,180(sp)
 1001388:	d9003617 	ldw	r4,216(sp)
 100138c:	d9403817 	ldw	r5,224(sp)
 1001390:	da003d15 	stw	r8,244(sp)
 1001394:	04000044 	movi	r16,1
 1001398:	1007fbc0 	call	1007fbc <__fpclassifyd>
 100139c:	da003d17 	ldw	r8,244(sp)
 10013a0:	14041f1e 	bne	r2,r16,1002420 <___vfprintf_internal_r+0x1684>
 10013a4:	d9003617 	ldw	r4,216(sp)
 10013a8:	d9403817 	ldw	r5,224(sp)
 10013ac:	000d883a 	mov	r6,zero
 10013b0:	000f883a 	mov	r7,zero
 10013b4:	100c1740 	call	100c174 <__ledf2>
 10013b8:	da003d17 	ldw	r8,244(sp)
 10013bc:	1005be16 	blt	r2,zero,1002ab8 <___vfprintf_internal_r+0x1d1c>
 10013c0:	df002783 	ldbu	fp,158(sp)
 10013c4:	008011c4 	movi	r2,71
 10013c8:	1445330e 	bge	r2,r17,1002898 <___vfprintf_internal_r+0x1afc>
 10013cc:	04004074 	movhi	r16,257
 10013d0:	843f5604 	addi	r16,r16,-680
 10013d4:	00c000c4 	movi	r3,3
 10013d8:	00bfdfc4 	movi	r2,-129
 10013dc:	d8c02a15 	stw	r3,168(sp)
 10013e0:	90a4703a 	and	r18,r18,r2
 10013e4:	d8c02e15 	stw	r3,184(sp)
 10013e8:	d8002915 	stw	zero,164(sp)
 10013ec:	d8003215 	stw	zero,200(sp)
 10013f0:	00003706 	br	10014d0 <___vfprintf_internal_r+0x734>
 10013f4:	94800214 	ori	r18,r18,8
 10013f8:	ac400007 	ldb	r17,0(r21)
 10013fc:	003ec806 	br	1000f20 <___vfprintf_internal_r+0x184>
 1001400:	18c03fcc 	andi	r3,r3,255
 1001404:	1806db1e 	bne	r3,zero,1002f74 <___vfprintf_internal_r+0x21d8>
 1001408:	94800414 	ori	r18,r18,16
 100140c:	9080080c 	andi	r2,r18,32
 1001410:	1002d826 	beq	r2,zero,1001f74 <___vfprintf_internal_r+0x11d8>
 1001414:	d9402d17 	ldw	r5,180(sp)
 1001418:	d8c02917 	ldw	r3,164(sp)
 100141c:	d8002785 	stb	zero,158(sp)
 1001420:	28800204 	addi	r2,r5,8
 1001424:	2cc00017 	ldw	r19,0(r5)
 1001428:	2d800117 	ldw	r22,4(r5)
 100142c:	18048f16 	blt	r3,zero,100266c <___vfprintf_internal_r+0x18d0>
 1001430:	013fdfc4 	movi	r4,-129
 1001434:	9d86b03a 	or	r3,r19,r22
 1001438:	d8802d15 	stw	r2,180(sp)
 100143c:	9124703a 	and	r18,r18,r4
 1001440:	1802d91e 	bne	r3,zero,1001fa8 <___vfprintf_internal_r+0x120c>
 1001444:	d8c02917 	ldw	r3,164(sp)
 1001448:	0039883a 	mov	fp,zero
 100144c:	1805c326 	beq	r3,zero,1002b5c <___vfprintf_internal_r+0x1dc0>
 1001450:	0027883a 	mov	r19,zero
 1001454:	002d883a 	mov	r22,zero
 1001458:	dc001e04 	addi	r16,sp,120
 100145c:	9806d0fa 	srli	r3,r19,3
 1001460:	b008977a 	slli	r4,r22,29
 1001464:	b02cd0fa 	srli	r22,r22,3
 1001468:	9cc001cc 	andi	r19,r19,7
 100146c:	98800c04 	addi	r2,r19,48
 1001470:	843fffc4 	addi	r16,r16,-1
 1001474:	20e6b03a 	or	r19,r4,r3
 1001478:	80800005 	stb	r2,0(r16)
 100147c:	9d86b03a 	or	r3,r19,r22
 1001480:	183ff61e 	bne	r3,zero,100145c <___vfprintf_internal_r+0x6c0>
 1001484:	90c0004c 	andi	r3,r18,1
 1001488:	18013b26 	beq	r3,zero,1001978 <___vfprintf_internal_r+0xbdc>
 100148c:	10803fcc 	andi	r2,r2,255
 1001490:	1080201c 	xori	r2,r2,128
 1001494:	10bfe004 	addi	r2,r2,-128
 1001498:	00c00c04 	movi	r3,48
 100149c:	10c13626 	beq	r2,r3,1001978 <___vfprintf_internal_r+0xbdc>
 10014a0:	80ffffc5 	stb	r3,-1(r16)
 10014a4:	d8c02817 	ldw	r3,160(sp)
 10014a8:	80bfffc4 	addi	r2,r16,-1
 10014ac:	1021883a 	mov	r16,r2
 10014b0:	1887c83a 	sub	r3,r3,r2
 10014b4:	d8c02e15 	stw	r3,184(sp)
 10014b8:	d8802e17 	ldw	r2,184(sp)
 10014bc:	d9002917 	ldw	r4,164(sp)
 10014c0:	1100010e 	bge	r2,r4,10014c8 <___vfprintf_internal_r+0x72c>
 10014c4:	2005883a 	mov	r2,r4
 10014c8:	d8802a15 	stw	r2,168(sp)
 10014cc:	d8003215 	stw	zero,200(sp)
 10014d0:	e7003fcc 	andi	fp,fp,255
 10014d4:	e700201c 	xori	fp,fp,128
 10014d8:	e73fe004 	addi	fp,fp,-128
 10014dc:	e0000326 	beq	fp,zero,10014ec <___vfprintf_internal_r+0x750>
 10014e0:	d8c02a17 	ldw	r3,168(sp)
 10014e4:	18c00044 	addi	r3,r3,1
 10014e8:	d8c02a15 	stw	r3,168(sp)
 10014ec:	90c0008c 	andi	r3,r18,2
 10014f0:	d8c02b15 	stw	r3,172(sp)
 10014f4:	18000326 	beq	r3,zero,1001504 <___vfprintf_internal_r+0x768>
 10014f8:	d8c02a17 	ldw	r3,168(sp)
 10014fc:	18c00084 	addi	r3,r3,2
 1001500:	d8c02a15 	stw	r3,168(sp)
 1001504:	90c0210c 	andi	r3,r18,132
 1001508:	d8c03015 	stw	r3,192(sp)
 100150c:	1801a31e 	bne	r3,zero,1001b9c <___vfprintf_internal_r+0xe00>
 1001510:	d9003117 	ldw	r4,196(sp)
 1001514:	d8c02a17 	ldw	r3,168(sp)
 1001518:	20e7c83a 	sub	r19,r4,r3
 100151c:	04c19f0e 	bge	zero,r19,1001b9c <___vfprintf_internal_r+0xe00>
 1001520:	02400404 	movi	r9,16
 1001524:	d8c02017 	ldw	r3,128(sp)
 1001528:	d8801f17 	ldw	r2,124(sp)
 100152c:	4cc50d0e 	bge	r9,r19,1002964 <___vfprintf_internal_r+0x1bc8>
 1001530:	01404074 	movhi	r5,257
 1001534:	297f6984 	addi	r5,r5,-602
 1001538:	dc403b15 	stw	r17,236(sp)
 100153c:	d9403515 	stw	r5,212(sp)
 1001540:	9823883a 	mov	r17,r19
 1001544:	482d883a 	mov	r22,r9
 1001548:	9027883a 	mov	r19,r18
 100154c:	070001c4 	movi	fp,7
 1001550:	8025883a 	mov	r18,r16
 1001554:	dc002c17 	ldw	r16,176(sp)
 1001558:	00000306 	br	1001568 <___vfprintf_internal_r+0x7cc>
 100155c:	8c7ffc04 	addi	r17,r17,-16
 1001560:	42000204 	addi	r8,r8,8
 1001564:	b440130e 	bge	r22,r17,10015b4 <___vfprintf_internal_r+0x818>
 1001568:	01004074 	movhi	r4,257
 100156c:	18c00404 	addi	r3,r3,16
 1001570:	10800044 	addi	r2,r2,1
 1001574:	213f6984 	addi	r4,r4,-602
 1001578:	41000015 	stw	r4,0(r8)
 100157c:	45800115 	stw	r22,4(r8)
 1001580:	d8c02015 	stw	r3,128(sp)
 1001584:	d8801f15 	stw	r2,124(sp)
 1001588:	e0bff40e 	bge	fp,r2,100155c <___vfprintf_internal_r+0x7c0>
 100158c:	d9801e04 	addi	r6,sp,120
 1001590:	b80b883a 	mov	r5,r23
 1001594:	8009883a 	mov	r4,r16
 1001598:	10083980 	call	1008398 <__sprint_r>
 100159c:	103f011e 	bne	r2,zero,10011a4 <___vfprintf_internal_r+0x408>
 10015a0:	8c7ffc04 	addi	r17,r17,-16
 10015a4:	d8c02017 	ldw	r3,128(sp)
 10015a8:	d8801f17 	ldw	r2,124(sp)
 10015ac:	da000404 	addi	r8,sp,16
 10015b0:	b47fed16 	blt	r22,r17,1001568 <___vfprintf_internal_r+0x7cc>
 10015b4:	9021883a 	mov	r16,r18
 10015b8:	9825883a 	mov	r18,r19
 10015bc:	8827883a 	mov	r19,r17
 10015c0:	dc403b17 	ldw	r17,236(sp)
 10015c4:	d9403517 	ldw	r5,212(sp)
 10015c8:	98c7883a 	add	r3,r19,r3
 10015cc:	10800044 	addi	r2,r2,1
 10015d0:	41400015 	stw	r5,0(r8)
 10015d4:	44c00115 	stw	r19,4(r8)
 10015d8:	d8c02015 	stw	r3,128(sp)
 10015dc:	d8801f15 	stw	r2,124(sp)
 10015e0:	010001c4 	movi	r4,7
 10015e4:	2082a316 	blt	r4,r2,1002074 <___vfprintf_internal_r+0x12d8>
 10015e8:	df002787 	ldb	fp,158(sp)
 10015ec:	42000204 	addi	r8,r8,8
 10015f0:	e0000c26 	beq	fp,zero,1001624 <___vfprintf_internal_r+0x888>
 10015f4:	d8801f17 	ldw	r2,124(sp)
 10015f8:	d9002784 	addi	r4,sp,158
 10015fc:	18c00044 	addi	r3,r3,1
 1001600:	10800044 	addi	r2,r2,1
 1001604:	41000015 	stw	r4,0(r8)
 1001608:	01000044 	movi	r4,1
 100160c:	41000115 	stw	r4,4(r8)
 1001610:	d8c02015 	stw	r3,128(sp)
 1001614:	d8801f15 	stw	r2,124(sp)
 1001618:	010001c4 	movi	r4,7
 100161c:	20823c16 	blt	r4,r2,1001f10 <___vfprintf_internal_r+0x1174>
 1001620:	42000204 	addi	r8,r8,8
 1001624:	d8802b17 	ldw	r2,172(sp)
 1001628:	10000c26 	beq	r2,zero,100165c <___vfprintf_internal_r+0x8c0>
 100162c:	d8801f17 	ldw	r2,124(sp)
 1001630:	d9002704 	addi	r4,sp,156
 1001634:	18c00084 	addi	r3,r3,2
 1001638:	10800044 	addi	r2,r2,1
 100163c:	41000015 	stw	r4,0(r8)
 1001640:	01000084 	movi	r4,2
 1001644:	41000115 	stw	r4,4(r8)
 1001648:	d8c02015 	stw	r3,128(sp)
 100164c:	d8801f15 	stw	r2,124(sp)
 1001650:	010001c4 	movi	r4,7
 1001654:	20823616 	blt	r4,r2,1001f30 <___vfprintf_internal_r+0x1194>
 1001658:	42000204 	addi	r8,r8,8
 100165c:	d9003017 	ldw	r4,192(sp)
 1001660:	00802004 	movi	r2,128
 1001664:	20819926 	beq	r4,r2,1001ccc <___vfprintf_internal_r+0xf30>
 1001668:	d9402917 	ldw	r5,164(sp)
 100166c:	d8802e17 	ldw	r2,184(sp)
 1001670:	28adc83a 	sub	r22,r5,r2
 1001674:	0580310e 	bge	zero,r22,100173c <___vfprintf_internal_r+0x9a0>
 1001678:	07000404 	movi	fp,16
 100167c:	d8801f17 	ldw	r2,124(sp)
 1001680:	e584140e 	bge	fp,r22,10026d4 <___vfprintf_internal_r+0x1938>
 1001684:	01404074 	movhi	r5,257
 1001688:	297f6584 	addi	r5,r5,-618
 100168c:	dc402915 	stw	r17,164(sp)
 1001690:	d9402b15 	stw	r5,172(sp)
 1001694:	b023883a 	mov	r17,r22
 1001698:	04c001c4 	movi	r19,7
 100169c:	a82d883a 	mov	r22,r21
 10016a0:	902b883a 	mov	r21,r18
 10016a4:	8025883a 	mov	r18,r16
 10016a8:	dc002c17 	ldw	r16,176(sp)
 10016ac:	00000306 	br	10016bc <___vfprintf_internal_r+0x920>
 10016b0:	8c7ffc04 	addi	r17,r17,-16
 10016b4:	42000204 	addi	r8,r8,8
 10016b8:	e440110e 	bge	fp,r17,1001700 <___vfprintf_internal_r+0x964>
 10016bc:	18c00404 	addi	r3,r3,16
 10016c0:	10800044 	addi	r2,r2,1
 10016c4:	45000015 	stw	r20,0(r8)
 10016c8:	47000115 	stw	fp,4(r8)
 10016cc:	d8c02015 	stw	r3,128(sp)
 10016d0:	d8801f15 	stw	r2,124(sp)
 10016d4:	98bff60e 	bge	r19,r2,10016b0 <___vfprintf_internal_r+0x914>
 10016d8:	d9801e04 	addi	r6,sp,120
 10016dc:	b80b883a 	mov	r5,r23
 10016e0:	8009883a 	mov	r4,r16
 10016e4:	10083980 	call	1008398 <__sprint_r>
 10016e8:	103eae1e 	bne	r2,zero,10011a4 <___vfprintf_internal_r+0x408>
 10016ec:	8c7ffc04 	addi	r17,r17,-16
 10016f0:	d8c02017 	ldw	r3,128(sp)
 10016f4:	d8801f17 	ldw	r2,124(sp)
 10016f8:	da000404 	addi	r8,sp,16
 10016fc:	e47fef16 	blt	fp,r17,10016bc <___vfprintf_internal_r+0x920>
 1001700:	9021883a 	mov	r16,r18
 1001704:	a825883a 	mov	r18,r21
 1001708:	b02b883a 	mov	r21,r22
 100170c:	882d883a 	mov	r22,r17
 1001710:	dc402917 	ldw	r17,164(sp)
 1001714:	d9002b17 	ldw	r4,172(sp)
 1001718:	1d87883a 	add	r3,r3,r22
 100171c:	10800044 	addi	r2,r2,1
 1001720:	41000015 	stw	r4,0(r8)
 1001724:	45800115 	stw	r22,4(r8)
 1001728:	d8c02015 	stw	r3,128(sp)
 100172c:	d8801f15 	stw	r2,124(sp)
 1001730:	010001c4 	movi	r4,7
 1001734:	2081ee16 	blt	r4,r2,1001ef0 <___vfprintf_internal_r+0x1154>
 1001738:	42000204 	addi	r8,r8,8
 100173c:	9080400c 	andi	r2,r18,256
 1001740:	1001181e 	bne	r2,zero,1001ba4 <___vfprintf_internal_r+0xe08>
 1001744:	d9402e17 	ldw	r5,184(sp)
 1001748:	d8801f17 	ldw	r2,124(sp)
 100174c:	44000015 	stw	r16,0(r8)
 1001750:	1947883a 	add	r3,r3,r5
 1001754:	10800044 	addi	r2,r2,1
 1001758:	41400115 	stw	r5,4(r8)
 100175c:	d8c02015 	stw	r3,128(sp)
 1001760:	d8801f15 	stw	r2,124(sp)
 1001764:	010001c4 	movi	r4,7
 1001768:	2081d316 	blt	r4,r2,1001eb8 <___vfprintf_internal_r+0x111c>
 100176c:	42000204 	addi	r8,r8,8
 1001770:	9480010c 	andi	r18,r18,4
 1001774:	90003226 	beq	r18,zero,1001840 <___vfprintf_internal_r+0xaa4>
 1001778:	d9403117 	ldw	r5,196(sp)
 100177c:	d8802a17 	ldw	r2,168(sp)
 1001780:	28a1c83a 	sub	r16,r5,r2
 1001784:	04002e0e 	bge	zero,r16,1001840 <___vfprintf_internal_r+0xaa4>
 1001788:	04400404 	movi	r17,16
 100178c:	d8801f17 	ldw	r2,124(sp)
 1001790:	8c04a20e 	bge	r17,r16,1002a1c <___vfprintf_internal_r+0x1c80>
 1001794:	01404074 	movhi	r5,257
 1001798:	297f6984 	addi	r5,r5,-602
 100179c:	d9403515 	stw	r5,212(sp)
 10017a0:	048001c4 	movi	r18,7
 10017a4:	dcc02c17 	ldw	r19,176(sp)
 10017a8:	00000306 	br	10017b8 <___vfprintf_internal_r+0xa1c>
 10017ac:	843ffc04 	addi	r16,r16,-16
 10017b0:	42000204 	addi	r8,r8,8
 10017b4:	8c00130e 	bge	r17,r16,1001804 <___vfprintf_internal_r+0xa68>
 10017b8:	01004074 	movhi	r4,257
 10017bc:	18c00404 	addi	r3,r3,16
 10017c0:	10800044 	addi	r2,r2,1
 10017c4:	213f6984 	addi	r4,r4,-602
 10017c8:	41000015 	stw	r4,0(r8)
 10017cc:	44400115 	stw	r17,4(r8)
 10017d0:	d8c02015 	stw	r3,128(sp)
 10017d4:	d8801f15 	stw	r2,124(sp)
 10017d8:	90bff40e 	bge	r18,r2,10017ac <___vfprintf_internal_r+0xa10>
 10017dc:	d9801e04 	addi	r6,sp,120
 10017e0:	b80b883a 	mov	r5,r23
 10017e4:	9809883a 	mov	r4,r19
 10017e8:	10083980 	call	1008398 <__sprint_r>
 10017ec:	103e6d1e 	bne	r2,zero,10011a4 <___vfprintf_internal_r+0x408>
 10017f0:	843ffc04 	addi	r16,r16,-16
 10017f4:	d8c02017 	ldw	r3,128(sp)
 10017f8:	d8801f17 	ldw	r2,124(sp)
 10017fc:	da000404 	addi	r8,sp,16
 1001800:	8c3fed16 	blt	r17,r16,10017b8 <___vfprintf_internal_r+0xa1c>
 1001804:	d9403517 	ldw	r5,212(sp)
 1001808:	1c07883a 	add	r3,r3,r16
 100180c:	10800044 	addi	r2,r2,1
 1001810:	41400015 	stw	r5,0(r8)
 1001814:	44000115 	stw	r16,4(r8)
 1001818:	d8c02015 	stw	r3,128(sp)
 100181c:	d8801f15 	stw	r2,124(sp)
 1001820:	010001c4 	movi	r4,7
 1001824:	2080060e 	bge	r4,r2,1001840 <___vfprintf_internal_r+0xaa4>
 1001828:	d9002c17 	ldw	r4,176(sp)
 100182c:	d9801e04 	addi	r6,sp,120
 1001830:	b80b883a 	mov	r5,r23
 1001834:	10083980 	call	1008398 <__sprint_r>
 1001838:	103e5a1e 	bne	r2,zero,10011a4 <___vfprintf_internal_r+0x408>
 100183c:	d8c02017 	ldw	r3,128(sp)
 1001840:	d8803117 	ldw	r2,196(sp)
 1001844:	d9002a17 	ldw	r4,168(sp)
 1001848:	1100010e 	bge	r2,r4,1001850 <___vfprintf_internal_r+0xab4>
 100184c:	2005883a 	mov	r2,r4
 1001850:	d9402f17 	ldw	r5,188(sp)
 1001854:	288b883a 	add	r5,r5,r2
 1001858:	d9402f15 	stw	r5,188(sp)
 100185c:	18019e1e 	bne	r3,zero,1001ed8 <___vfprintf_internal_r+0x113c>
 1001860:	a8800007 	ldb	r2,0(r21)
 1001864:	d8001f15 	stw	zero,124(sp)
 1001868:	da000404 	addi	r8,sp,16
 100186c:	103d851e 	bne	r2,zero,1000e84 <___vfprintf_internal_r+0xe8>
 1001870:	a821883a 	mov	r16,r21
 1001874:	003d9b06 	br	1000ee4 <___vfprintf_internal_r+0x148>
 1001878:	18c03fcc 	andi	r3,r3,255
 100187c:	1805c11e 	bne	r3,zero,1002f84 <___vfprintf_internal_r+0x21e8>
 1001880:	94800414 	ori	r18,r18,16
 1001884:	9080080c 	andi	r2,r18,32
 1001888:	10020c26 	beq	r2,zero,10020bc <___vfprintf_internal_r+0x1320>
 100188c:	d8802d17 	ldw	r2,180(sp)
 1001890:	d9002917 	ldw	r4,164(sp)
 1001894:	d8002785 	stb	zero,158(sp)
 1001898:	10c00204 	addi	r3,r2,8
 100189c:	14c00017 	ldw	r19,0(r2)
 10018a0:	15800117 	ldw	r22,4(r2)
 10018a4:	20040f16 	blt	r4,zero,10028e4 <___vfprintf_internal_r+0x1b48>
 10018a8:	013fdfc4 	movi	r4,-129
 10018ac:	9d84b03a 	or	r2,r19,r22
 10018b0:	d8c02d15 	stw	r3,180(sp)
 10018b4:	9124703a 	and	r18,r18,r4
 10018b8:	0039883a 	mov	fp,zero
 10018bc:	103e891e 	bne	r2,zero,10012e4 <___vfprintf_internal_r+0x548>
 10018c0:	d9002917 	ldw	r4,164(sp)
 10018c4:	2002c11e 	bne	r4,zero,10023cc <___vfprintf_internal_r+0x1630>
 10018c8:	d8002915 	stw	zero,164(sp)
 10018cc:	d8002e15 	stw	zero,184(sp)
 10018d0:	dc001e04 	addi	r16,sp,120
 10018d4:	003ef806 	br	10014b8 <___vfprintf_internal_r+0x71c>
 10018d8:	18c03fcc 	andi	r3,r3,255
 10018dc:	18059d1e 	bne	r3,zero,1002f54 <___vfprintf_internal_r+0x21b8>
 10018e0:	01404074 	movhi	r5,257
 10018e4:	297f5904 	addi	r5,r5,-668
 10018e8:	d9403915 	stw	r5,228(sp)
 10018ec:	9080080c 	andi	r2,r18,32
 10018f0:	10005226 	beq	r2,zero,1001a3c <___vfprintf_internal_r+0xca0>
 10018f4:	d8802d17 	ldw	r2,180(sp)
 10018f8:	14c00017 	ldw	r19,0(r2)
 10018fc:	15800117 	ldw	r22,4(r2)
 1001900:	10800204 	addi	r2,r2,8
 1001904:	d8802d15 	stw	r2,180(sp)
 1001908:	9080004c 	andi	r2,r18,1
 100190c:	10019026 	beq	r2,zero,1001f50 <___vfprintf_internal_r+0x11b4>
 1001910:	9d84b03a 	or	r2,r19,r22
 1001914:	10036926 	beq	r2,zero,10026bc <___vfprintf_internal_r+0x1920>
 1001918:	d8c02917 	ldw	r3,164(sp)
 100191c:	00800c04 	movi	r2,48
 1001920:	d8802705 	stb	r2,156(sp)
 1001924:	dc402745 	stb	r17,157(sp)
 1001928:	d8002785 	stb	zero,158(sp)
 100192c:	90800094 	ori	r2,r18,2
 1001930:	18045d16 	blt	r3,zero,1002aa8 <___vfprintf_internal_r+0x1d0c>
 1001934:	00bfdfc4 	movi	r2,-129
 1001938:	90a4703a 	and	r18,r18,r2
 100193c:	94800094 	ori	r18,r18,2
 1001940:	0039883a 	mov	fp,zero
 1001944:	d9003917 	ldw	r4,228(sp)
 1001948:	dc001e04 	addi	r16,sp,120
 100194c:	988003cc 	andi	r2,r19,15
 1001950:	b006973a 	slli	r3,r22,28
 1001954:	2085883a 	add	r2,r4,r2
 1001958:	9826d13a 	srli	r19,r19,4
 100195c:	10800003 	ldbu	r2,0(r2)
 1001960:	b02cd13a 	srli	r22,r22,4
 1001964:	843fffc4 	addi	r16,r16,-1
 1001968:	1ce6b03a 	or	r19,r3,r19
 100196c:	80800005 	stb	r2,0(r16)
 1001970:	9d84b03a 	or	r2,r19,r22
 1001974:	103ff51e 	bne	r2,zero,100194c <___vfprintf_internal_r+0xbb0>
 1001978:	d8c02817 	ldw	r3,160(sp)
 100197c:	1c07c83a 	sub	r3,r3,r16
 1001980:	d8c02e15 	stw	r3,184(sp)
 1001984:	003ecc06 	br	10014b8 <___vfprintf_internal_r+0x71c>
 1001988:	18c03fcc 	andi	r3,r3,255
 100198c:	183e9f26 	beq	r3,zero,100140c <___vfprintf_internal_r+0x670>
 1001990:	d9c02785 	stb	r7,158(sp)
 1001994:	003e9d06 	br	100140c <___vfprintf_internal_r+0x670>
 1001998:	00c00044 	movi	r3,1
 100199c:	01c00ac4 	movi	r7,43
 10019a0:	ac400007 	ldb	r17,0(r21)
 10019a4:	003d5e06 	br	1000f20 <___vfprintf_internal_r+0x184>
 10019a8:	94800814 	ori	r18,r18,32
 10019ac:	ac400007 	ldb	r17,0(r21)
 10019b0:	003d5b06 	br	1000f20 <___vfprintf_internal_r+0x184>
 10019b4:	d8c02d17 	ldw	r3,180(sp)
 10019b8:	d8002785 	stb	zero,158(sp)
 10019bc:	1c000017 	ldw	r16,0(r3)
 10019c0:	1cc00104 	addi	r19,r3,4
 10019c4:	80041926 	beq	r16,zero,1002a2c <___vfprintf_internal_r+0x1c90>
 10019c8:	d9002917 	ldw	r4,164(sp)
 10019cc:	2003d016 	blt	r4,zero,1002910 <___vfprintf_internal_r+0x1b74>
 10019d0:	200d883a 	mov	r6,r4
 10019d4:	000b883a 	mov	r5,zero
 10019d8:	8009883a 	mov	r4,r16
 10019dc:	da003d15 	stw	r8,244(sp)
 10019e0:	10065ac0 	call	10065ac <memchr>
 10019e4:	da003d17 	ldw	r8,244(sp)
 10019e8:	10045426 	beq	r2,zero,1002b3c <___vfprintf_internal_r+0x1da0>
 10019ec:	1405c83a 	sub	r2,r2,r16
 10019f0:	d8802e15 	stw	r2,184(sp)
 10019f4:	1003cc16 	blt	r2,zero,1002928 <___vfprintf_internal_r+0x1b8c>
 10019f8:	df002783 	ldbu	fp,158(sp)
 10019fc:	d8802a15 	stw	r2,168(sp)
 1001a00:	dcc02d15 	stw	r19,180(sp)
 1001a04:	d8002915 	stw	zero,164(sp)
 1001a08:	d8003215 	stw	zero,200(sp)
 1001a0c:	003eb006 	br	10014d0 <___vfprintf_internal_r+0x734>
 1001a10:	18c03fcc 	andi	r3,r3,255
 1001a14:	183f9b26 	beq	r3,zero,1001884 <___vfprintf_internal_r+0xae8>
 1001a18:	d9c02785 	stb	r7,158(sp)
 1001a1c:	003f9906 	br	1001884 <___vfprintf_internal_r+0xae8>
 1001a20:	18c03fcc 	andi	r3,r3,255
 1001a24:	1805551e 	bne	r3,zero,1002f7c <___vfprintf_internal_r+0x21e0>
 1001a28:	01404074 	movhi	r5,257
 1001a2c:	297f5e04 	addi	r5,r5,-648
 1001a30:	d9403915 	stw	r5,228(sp)
 1001a34:	9080080c 	andi	r2,r18,32
 1001a38:	103fae1e 	bne	r2,zero,10018f4 <___vfprintf_internal_r+0xb58>
 1001a3c:	9080040c 	andi	r2,r18,16
 1001a40:	1002de26 	beq	r2,zero,10025bc <___vfprintf_internal_r+0x1820>
 1001a44:	d8c02d17 	ldw	r3,180(sp)
 1001a48:	002d883a 	mov	r22,zero
 1001a4c:	1cc00017 	ldw	r19,0(r3)
 1001a50:	18c00104 	addi	r3,r3,4
 1001a54:	d8c02d15 	stw	r3,180(sp)
 1001a58:	003fab06 	br	1001908 <___vfprintf_internal_r+0xb6c>
 1001a5c:	38803fcc 	andi	r2,r7,255
 1001a60:	1080201c 	xori	r2,r2,128
 1001a64:	10bfe004 	addi	r2,r2,-128
 1001a68:	1002d21e 	bne	r2,zero,10025b4 <___vfprintf_internal_r+0x1818>
 1001a6c:	00c00044 	movi	r3,1
 1001a70:	01c00804 	movi	r7,32
 1001a74:	ac400007 	ldb	r17,0(r21)
 1001a78:	003d2906 	br	1000f20 <___vfprintf_internal_r+0x184>
 1001a7c:	94800054 	ori	r18,r18,1
 1001a80:	ac400007 	ldb	r17,0(r21)
 1001a84:	003d2606 	br	1000f20 <___vfprintf_internal_r+0x184>
 1001a88:	18c03fcc 	andi	r3,r3,255
 1001a8c:	183e0526 	beq	r3,zero,10012a4 <___vfprintf_internal_r+0x508>
 1001a90:	d9c02785 	stb	r7,158(sp)
 1001a94:	003e0306 	br	10012a4 <___vfprintf_internal_r+0x508>
 1001a98:	94801014 	ori	r18,r18,64
 1001a9c:	ac400007 	ldb	r17,0(r21)
 1001aa0:	003d1f06 	br	1000f20 <___vfprintf_internal_r+0x184>
 1001aa4:	ac400007 	ldb	r17,0(r21)
 1001aa8:	8a438726 	beq	r17,r9,10028c8 <___vfprintf_internal_r+0x1b2c>
 1001aac:	94800414 	ori	r18,r18,16
 1001ab0:	003d1b06 	br	1000f20 <___vfprintf_internal_r+0x184>
 1001ab4:	18c03fcc 	andi	r3,r3,255
 1001ab8:	1805341e 	bne	r3,zero,1002f8c <___vfprintf_internal_r+0x21f0>
 1001abc:	9080080c 	andi	r2,r18,32
 1001ac0:	1002cd26 	beq	r2,zero,10025f8 <___vfprintf_internal_r+0x185c>
 1001ac4:	d9402d17 	ldw	r5,180(sp)
 1001ac8:	d9002f17 	ldw	r4,188(sp)
 1001acc:	28800017 	ldw	r2,0(r5)
 1001ad0:	2007d7fa 	srai	r3,r4,31
 1001ad4:	29400104 	addi	r5,r5,4
 1001ad8:	d9402d15 	stw	r5,180(sp)
 1001adc:	11000015 	stw	r4,0(r2)
 1001ae0:	10c00115 	stw	r3,4(r2)
 1001ae4:	003ce506 	br	1000e7c <___vfprintf_internal_r+0xe0>
 1001ae8:	d8c02d17 	ldw	r3,180(sp)
 1001aec:	d9002d17 	ldw	r4,180(sp)
 1001af0:	d8002785 	stb	zero,158(sp)
 1001af4:	18800017 	ldw	r2,0(r3)
 1001af8:	21000104 	addi	r4,r4,4
 1001afc:	00c00044 	movi	r3,1
 1001b00:	d8c02a15 	stw	r3,168(sp)
 1001b04:	d8801405 	stb	r2,80(sp)
 1001b08:	d9002d15 	stw	r4,180(sp)
 1001b0c:	d8c02e15 	stw	r3,184(sp)
 1001b10:	d8002915 	stw	zero,164(sp)
 1001b14:	d8003215 	stw	zero,200(sp)
 1001b18:	dc001404 	addi	r16,sp,80
 1001b1c:	0039883a 	mov	fp,zero
 1001b20:	003e7206 	br	10014ec <___vfprintf_internal_r+0x750>
 1001b24:	01004074 	movhi	r4,257
 1001b28:	213f5e04 	addi	r4,r4,-648
 1001b2c:	0039883a 	mov	fp,zero
 1001b30:	d9003915 	stw	r4,228(sp)
 1001b34:	04401e04 	movi	r17,120
 1001b38:	003f8206 	br	1001944 <___vfprintf_internal_r+0xba8>
 1001b3c:	18c03fcc 	andi	r3,r3,255
 1001b40:	1805061e 	bne	r3,zero,1002f5c <___vfprintf_internal_r+0x21c0>
 1001b44:	883d9126 	beq	r17,zero,100118c <___vfprintf_internal_r+0x3f0>
 1001b48:	00c00044 	movi	r3,1
 1001b4c:	d8c02a15 	stw	r3,168(sp)
 1001b50:	dc401405 	stb	r17,80(sp)
 1001b54:	d8002785 	stb	zero,158(sp)
 1001b58:	003fec06 	br	1001b0c <___vfprintf_internal_r+0xd70>
 1001b5c:	01404074 	movhi	r5,257
 1001b60:	297f5e04 	addi	r5,r5,-648
 1001b64:	d9403915 	stw	r5,228(sp)
 1001b68:	d8c02d15 	stw	r3,180(sp)
 1001b6c:	1025883a 	mov	r18,r2
 1001b70:	04401e04 	movi	r17,120
 1001b74:	9d84b03a 	or	r2,r19,r22
 1001b78:	1000fc1e 	bne	r2,zero,1001f6c <___vfprintf_internal_r+0x11d0>
 1001b7c:	0039883a 	mov	fp,zero
 1001b80:	00800084 	movi	r2,2
 1001b84:	10803fcc 	andi	r2,r2,255
 1001b88:	00c00044 	movi	r3,1
 1001b8c:	10c20f26 	beq	r2,r3,10023cc <___vfprintf_internal_r+0x1630>
 1001b90:	00c00084 	movi	r3,2
 1001b94:	10fd6326 	beq	r2,r3,1001124 <___vfprintf_internal_r+0x388>
 1001b98:	003e2d06 	br	1001450 <___vfprintf_internal_r+0x6b4>
 1001b9c:	d8c02017 	ldw	r3,128(sp)
 1001ba0:	003e9306 	br	10015f0 <___vfprintf_internal_r+0x854>
 1001ba4:	00801944 	movi	r2,101
 1001ba8:	14407e0e 	bge	r2,r17,1001da4 <___vfprintf_internal_r+0x1008>
 1001bac:	d9003617 	ldw	r4,216(sp)
 1001bb0:	d9403817 	ldw	r5,224(sp)
 1001bb4:	000d883a 	mov	r6,zero
 1001bb8:	000f883a 	mov	r7,zero
 1001bbc:	d8c03c15 	stw	r3,240(sp)
 1001bc0:	da003d15 	stw	r8,244(sp)
 1001bc4:	100c0100 	call	100c010 <__eqdf2>
 1001bc8:	d8c03c17 	ldw	r3,240(sp)
 1001bcc:	da003d17 	ldw	r8,244(sp)
 1001bd0:	1000f71e 	bne	r2,zero,1001fb0 <___vfprintf_internal_r+0x1214>
 1001bd4:	d8801f17 	ldw	r2,124(sp)
 1001bd8:	01004074 	movhi	r4,257
 1001bdc:	213f6504 	addi	r4,r4,-620
 1001be0:	18c00044 	addi	r3,r3,1
 1001be4:	10800044 	addi	r2,r2,1
 1001be8:	41000015 	stw	r4,0(r8)
 1001bec:	01000044 	movi	r4,1
 1001bf0:	41000115 	stw	r4,4(r8)
 1001bf4:	d8c02015 	stw	r3,128(sp)
 1001bf8:	d8801f15 	stw	r2,124(sp)
 1001bfc:	010001c4 	movi	r4,7
 1001c00:	2082b816 	blt	r4,r2,10026e4 <___vfprintf_internal_r+0x1948>
 1001c04:	42000204 	addi	r8,r8,8
 1001c08:	d8802617 	ldw	r2,152(sp)
 1001c0c:	d9403317 	ldw	r5,204(sp)
 1001c10:	11400216 	blt	r2,r5,1001c1c <___vfprintf_internal_r+0xe80>
 1001c14:	9080004c 	andi	r2,r18,1
 1001c18:	103ed526 	beq	r2,zero,1001770 <___vfprintf_internal_r+0x9d4>
 1001c1c:	d8803717 	ldw	r2,220(sp)
 1001c20:	d9003417 	ldw	r4,208(sp)
 1001c24:	d9403717 	ldw	r5,220(sp)
 1001c28:	1887883a 	add	r3,r3,r2
 1001c2c:	d8801f17 	ldw	r2,124(sp)
 1001c30:	41000015 	stw	r4,0(r8)
 1001c34:	41400115 	stw	r5,4(r8)
 1001c38:	10800044 	addi	r2,r2,1
 1001c3c:	d8c02015 	stw	r3,128(sp)
 1001c40:	d8801f15 	stw	r2,124(sp)
 1001c44:	010001c4 	movi	r4,7
 1001c48:	20832916 	blt	r4,r2,10028f0 <___vfprintf_internal_r+0x1b54>
 1001c4c:	42000204 	addi	r8,r8,8
 1001c50:	d8803317 	ldw	r2,204(sp)
 1001c54:	143fffc4 	addi	r16,r2,-1
 1001c58:	043ec50e 	bge	zero,r16,1001770 <___vfprintf_internal_r+0x9d4>
 1001c5c:	04400404 	movi	r17,16
 1001c60:	d8801f17 	ldw	r2,124(sp)
 1001c64:	8c00880e 	bge	r17,r16,1001e88 <___vfprintf_internal_r+0x10ec>
 1001c68:	01404074 	movhi	r5,257
 1001c6c:	297f6584 	addi	r5,r5,-618
 1001c70:	d9402b15 	stw	r5,172(sp)
 1001c74:	058001c4 	movi	r22,7
 1001c78:	dcc02c17 	ldw	r19,176(sp)
 1001c7c:	00000306 	br	1001c8c <___vfprintf_internal_r+0xef0>
 1001c80:	42000204 	addi	r8,r8,8
 1001c84:	843ffc04 	addi	r16,r16,-16
 1001c88:	8c00820e 	bge	r17,r16,1001e94 <___vfprintf_internal_r+0x10f8>
 1001c8c:	18c00404 	addi	r3,r3,16
 1001c90:	10800044 	addi	r2,r2,1
 1001c94:	45000015 	stw	r20,0(r8)
 1001c98:	44400115 	stw	r17,4(r8)
 1001c9c:	d8c02015 	stw	r3,128(sp)
 1001ca0:	d8801f15 	stw	r2,124(sp)
 1001ca4:	b0bff60e 	bge	r22,r2,1001c80 <___vfprintf_internal_r+0xee4>
 1001ca8:	d9801e04 	addi	r6,sp,120
 1001cac:	b80b883a 	mov	r5,r23
 1001cb0:	9809883a 	mov	r4,r19
 1001cb4:	10083980 	call	1008398 <__sprint_r>
 1001cb8:	103d3a1e 	bne	r2,zero,10011a4 <___vfprintf_internal_r+0x408>
 1001cbc:	d8c02017 	ldw	r3,128(sp)
 1001cc0:	d8801f17 	ldw	r2,124(sp)
 1001cc4:	da000404 	addi	r8,sp,16
 1001cc8:	003fee06 	br	1001c84 <___vfprintf_internal_r+0xee8>
 1001ccc:	d9403117 	ldw	r5,196(sp)
 1001cd0:	d8802a17 	ldw	r2,168(sp)
 1001cd4:	28adc83a 	sub	r22,r5,r2
 1001cd8:	05be630e 	bge	zero,r22,1001668 <___vfprintf_internal_r+0x8cc>
 1001cdc:	07000404 	movi	fp,16
 1001ce0:	d8801f17 	ldw	r2,124(sp)
 1001ce4:	e5838f0e 	bge	fp,r22,1002b24 <___vfprintf_internal_r+0x1d88>
 1001ce8:	01404074 	movhi	r5,257
 1001cec:	297f6584 	addi	r5,r5,-618
 1001cf0:	dc403015 	stw	r17,192(sp)
 1001cf4:	d9402b15 	stw	r5,172(sp)
 1001cf8:	b023883a 	mov	r17,r22
 1001cfc:	04c001c4 	movi	r19,7
 1001d00:	a82d883a 	mov	r22,r21
 1001d04:	902b883a 	mov	r21,r18
 1001d08:	8025883a 	mov	r18,r16
 1001d0c:	dc002c17 	ldw	r16,176(sp)
 1001d10:	00000306 	br	1001d20 <___vfprintf_internal_r+0xf84>
 1001d14:	8c7ffc04 	addi	r17,r17,-16
 1001d18:	42000204 	addi	r8,r8,8
 1001d1c:	e440110e 	bge	fp,r17,1001d64 <___vfprintf_internal_r+0xfc8>
 1001d20:	18c00404 	addi	r3,r3,16
 1001d24:	10800044 	addi	r2,r2,1
 1001d28:	45000015 	stw	r20,0(r8)
 1001d2c:	47000115 	stw	fp,4(r8)
 1001d30:	d8c02015 	stw	r3,128(sp)
 1001d34:	d8801f15 	stw	r2,124(sp)
 1001d38:	98bff60e 	bge	r19,r2,1001d14 <___vfprintf_internal_r+0xf78>
 1001d3c:	d9801e04 	addi	r6,sp,120
 1001d40:	b80b883a 	mov	r5,r23
 1001d44:	8009883a 	mov	r4,r16
 1001d48:	10083980 	call	1008398 <__sprint_r>
 1001d4c:	103d151e 	bne	r2,zero,10011a4 <___vfprintf_internal_r+0x408>
 1001d50:	8c7ffc04 	addi	r17,r17,-16
 1001d54:	d8c02017 	ldw	r3,128(sp)
 1001d58:	d8801f17 	ldw	r2,124(sp)
 1001d5c:	da000404 	addi	r8,sp,16
 1001d60:	e47fef16 	blt	fp,r17,1001d20 <___vfprintf_internal_r+0xf84>
 1001d64:	9021883a 	mov	r16,r18
 1001d68:	a825883a 	mov	r18,r21
 1001d6c:	b02b883a 	mov	r21,r22
 1001d70:	882d883a 	mov	r22,r17
 1001d74:	dc403017 	ldw	r17,192(sp)
 1001d78:	d9002b17 	ldw	r4,172(sp)
 1001d7c:	1d87883a 	add	r3,r3,r22
 1001d80:	10800044 	addi	r2,r2,1
 1001d84:	41000015 	stw	r4,0(r8)
 1001d88:	45800115 	stw	r22,4(r8)
 1001d8c:	d8c02015 	stw	r3,128(sp)
 1001d90:	d8801f15 	stw	r2,124(sp)
 1001d94:	010001c4 	movi	r4,7
 1001d98:	20818e16 	blt	r4,r2,10023d4 <___vfprintf_internal_r+0x1638>
 1001d9c:	42000204 	addi	r8,r8,8
 1001da0:	003e3106 	br	1001668 <___vfprintf_internal_r+0x8cc>
 1001da4:	d9403317 	ldw	r5,204(sp)
 1001da8:	00800044 	movi	r2,1
 1001dac:	18c00044 	addi	r3,r3,1
 1001db0:	1141530e 	bge	r2,r5,1002300 <___vfprintf_internal_r+0x1564>
 1001db4:	dc401f17 	ldw	r17,124(sp)
 1001db8:	00800044 	movi	r2,1
 1001dbc:	40800115 	stw	r2,4(r8)
 1001dc0:	8c400044 	addi	r17,r17,1
 1001dc4:	44000015 	stw	r16,0(r8)
 1001dc8:	d8c02015 	stw	r3,128(sp)
 1001dcc:	dc401f15 	stw	r17,124(sp)
 1001dd0:	008001c4 	movi	r2,7
 1001dd4:	14416b16 	blt	r2,r17,1002384 <___vfprintf_internal_r+0x15e8>
 1001dd8:	42000204 	addi	r8,r8,8
 1001ddc:	d8803717 	ldw	r2,220(sp)
 1001de0:	d9003417 	ldw	r4,208(sp)
 1001de4:	8c400044 	addi	r17,r17,1
 1001de8:	10c7883a 	add	r3,r2,r3
 1001dec:	40800115 	stw	r2,4(r8)
 1001df0:	41000015 	stw	r4,0(r8)
 1001df4:	d8c02015 	stw	r3,128(sp)
 1001df8:	dc401f15 	stw	r17,124(sp)
 1001dfc:	008001c4 	movi	r2,7
 1001e00:	14416916 	blt	r2,r17,10023a8 <___vfprintf_internal_r+0x160c>
 1001e04:	45800204 	addi	r22,r8,8
 1001e08:	d9003617 	ldw	r4,216(sp)
 1001e0c:	d9403817 	ldw	r5,224(sp)
 1001e10:	000d883a 	mov	r6,zero
 1001e14:	000f883a 	mov	r7,zero
 1001e18:	d8c03c15 	stw	r3,240(sp)
 1001e1c:	100c0100 	call	100c010 <__eqdf2>
 1001e20:	d8c03c17 	ldw	r3,240(sp)
 1001e24:	1000bc26 	beq	r2,zero,1002118 <___vfprintf_internal_r+0x137c>
 1001e28:	d9403317 	ldw	r5,204(sp)
 1001e2c:	84000044 	addi	r16,r16,1
 1001e30:	8c400044 	addi	r17,r17,1
 1001e34:	28bfffc4 	addi	r2,r5,-1
 1001e38:	1887883a 	add	r3,r3,r2
 1001e3c:	b0800115 	stw	r2,4(r22)
 1001e40:	b4000015 	stw	r16,0(r22)
 1001e44:	d8c02015 	stw	r3,128(sp)
 1001e48:	dc401f15 	stw	r17,124(sp)
 1001e4c:	008001c4 	movi	r2,7
 1001e50:	14414316 	blt	r2,r17,1002360 <___vfprintf_internal_r+0x15c4>
 1001e54:	b5800204 	addi	r22,r22,8
 1001e58:	d9003a17 	ldw	r4,232(sp)
 1001e5c:	df0022c4 	addi	fp,sp,139
 1001e60:	8c400044 	addi	r17,r17,1
 1001e64:	20c7883a 	add	r3,r4,r3
 1001e68:	b7000015 	stw	fp,0(r22)
 1001e6c:	b1000115 	stw	r4,4(r22)
 1001e70:	d8c02015 	stw	r3,128(sp)
 1001e74:	dc401f15 	stw	r17,124(sp)
 1001e78:	008001c4 	movi	r2,7
 1001e7c:	14400e16 	blt	r2,r17,1001eb8 <___vfprintf_internal_r+0x111c>
 1001e80:	b2000204 	addi	r8,r22,8
 1001e84:	003e3a06 	br	1001770 <___vfprintf_internal_r+0x9d4>
 1001e88:	01004074 	movhi	r4,257
 1001e8c:	213f6584 	addi	r4,r4,-618
 1001e90:	d9002b15 	stw	r4,172(sp)
 1001e94:	d9002b17 	ldw	r4,172(sp)
 1001e98:	1c07883a 	add	r3,r3,r16
 1001e9c:	44000115 	stw	r16,4(r8)
 1001ea0:	41000015 	stw	r4,0(r8)
 1001ea4:	10800044 	addi	r2,r2,1
 1001ea8:	d8c02015 	stw	r3,128(sp)
 1001eac:	d8801f15 	stw	r2,124(sp)
 1001eb0:	010001c4 	movi	r4,7
 1001eb4:	20be2d0e 	bge	r4,r2,100176c <___vfprintf_internal_r+0x9d0>
 1001eb8:	d9002c17 	ldw	r4,176(sp)
 1001ebc:	d9801e04 	addi	r6,sp,120
 1001ec0:	b80b883a 	mov	r5,r23
 1001ec4:	10083980 	call	1008398 <__sprint_r>
 1001ec8:	103cb61e 	bne	r2,zero,10011a4 <___vfprintf_internal_r+0x408>
 1001ecc:	d8c02017 	ldw	r3,128(sp)
 1001ed0:	da000404 	addi	r8,sp,16
 1001ed4:	003e2606 	br	1001770 <___vfprintf_internal_r+0x9d4>
 1001ed8:	d9002c17 	ldw	r4,176(sp)
 1001edc:	d9801e04 	addi	r6,sp,120
 1001ee0:	b80b883a 	mov	r5,r23
 1001ee4:	10083980 	call	1008398 <__sprint_r>
 1001ee8:	103e5d26 	beq	r2,zero,1001860 <___vfprintf_internal_r+0xac4>
 1001eec:	003cad06 	br	10011a4 <___vfprintf_internal_r+0x408>
 1001ef0:	d9002c17 	ldw	r4,176(sp)
 1001ef4:	d9801e04 	addi	r6,sp,120
 1001ef8:	b80b883a 	mov	r5,r23
 1001efc:	10083980 	call	1008398 <__sprint_r>
 1001f00:	103ca81e 	bne	r2,zero,10011a4 <___vfprintf_internal_r+0x408>
 1001f04:	d8c02017 	ldw	r3,128(sp)
 1001f08:	da000404 	addi	r8,sp,16
 1001f0c:	003e0b06 	br	100173c <___vfprintf_internal_r+0x9a0>
 1001f10:	d9002c17 	ldw	r4,176(sp)
 1001f14:	d9801e04 	addi	r6,sp,120
 1001f18:	b80b883a 	mov	r5,r23
 1001f1c:	10083980 	call	1008398 <__sprint_r>
 1001f20:	103ca01e 	bne	r2,zero,10011a4 <___vfprintf_internal_r+0x408>
 1001f24:	d8c02017 	ldw	r3,128(sp)
 1001f28:	da000404 	addi	r8,sp,16
 1001f2c:	003dbd06 	br	1001624 <___vfprintf_internal_r+0x888>
 1001f30:	d9002c17 	ldw	r4,176(sp)
 1001f34:	d9801e04 	addi	r6,sp,120
 1001f38:	b80b883a 	mov	r5,r23
 1001f3c:	10083980 	call	1008398 <__sprint_r>
 1001f40:	103c981e 	bne	r2,zero,10011a4 <___vfprintf_internal_r+0x408>
 1001f44:	d8c02017 	ldw	r3,128(sp)
 1001f48:	da000404 	addi	r8,sp,16
 1001f4c:	003dc306 	br	100165c <___vfprintf_internal_r+0x8c0>
 1001f50:	d8802917 	ldw	r2,164(sp)
 1001f54:	d8002785 	stb	zero,158(sp)
 1001f58:	103f0616 	blt	r2,zero,1001b74 <___vfprintf_internal_r+0xdd8>
 1001f5c:	00ffdfc4 	movi	r3,-129
 1001f60:	9d84b03a 	or	r2,r19,r22
 1001f64:	90e4703a 	and	r18,r18,r3
 1001f68:	103c6b26 	beq	r2,zero,1001118 <___vfprintf_internal_r+0x37c>
 1001f6c:	0039883a 	mov	fp,zero
 1001f70:	003e7406 	br	1001944 <___vfprintf_internal_r+0xba8>
 1001f74:	9080040c 	andi	r2,r18,16
 1001f78:	1001b326 	beq	r2,zero,1002648 <___vfprintf_internal_r+0x18ac>
 1001f7c:	d9002d17 	ldw	r4,180(sp)
 1001f80:	d9402917 	ldw	r5,164(sp)
 1001f84:	d8002785 	stb	zero,158(sp)
 1001f88:	20800104 	addi	r2,r4,4
 1001f8c:	24c00017 	ldw	r19,0(r4)
 1001f90:	002d883a 	mov	r22,zero
 1001f94:	2801b516 	blt	r5,zero,100266c <___vfprintf_internal_r+0x18d0>
 1001f98:	00ffdfc4 	movi	r3,-129
 1001f9c:	d8802d15 	stw	r2,180(sp)
 1001fa0:	90e4703a 	and	r18,r18,r3
 1001fa4:	983d2726 	beq	r19,zero,1001444 <___vfprintf_internal_r+0x6a8>
 1001fa8:	0039883a 	mov	fp,zero
 1001fac:	003d2a06 	br	1001458 <___vfprintf_internal_r+0x6bc>
 1001fb0:	dc402617 	ldw	r17,152(sp)
 1001fb4:	0441d30e 	bge	zero,r17,1002704 <___vfprintf_internal_r+0x1968>
 1001fb8:	dc403217 	ldw	r17,200(sp)
 1001fbc:	d8803317 	ldw	r2,204(sp)
 1001fc0:	1440010e 	bge	r2,r17,1001fc8 <___vfprintf_internal_r+0x122c>
 1001fc4:	1023883a 	mov	r17,r2
 1001fc8:	04400a0e 	bge	zero,r17,1001ff4 <___vfprintf_internal_r+0x1258>
 1001fcc:	d8801f17 	ldw	r2,124(sp)
 1001fd0:	1c47883a 	add	r3,r3,r17
 1001fd4:	44000015 	stw	r16,0(r8)
 1001fd8:	10800044 	addi	r2,r2,1
 1001fdc:	44400115 	stw	r17,4(r8)
 1001fe0:	d8c02015 	stw	r3,128(sp)
 1001fe4:	d8801f15 	stw	r2,124(sp)
 1001fe8:	010001c4 	movi	r4,7
 1001fec:	20826516 	blt	r4,r2,1002984 <___vfprintf_internal_r+0x1be8>
 1001ff0:	42000204 	addi	r8,r8,8
 1001ff4:	88026116 	blt	r17,zero,100297c <___vfprintf_internal_r+0x1be0>
 1001ff8:	d9003217 	ldw	r4,200(sp)
 1001ffc:	2463c83a 	sub	r17,r4,r17
 1002000:	04407b0e 	bge	zero,r17,10021f0 <___vfprintf_internal_r+0x1454>
 1002004:	05800404 	movi	r22,16
 1002008:	d8801f17 	ldw	r2,124(sp)
 100200c:	b4419d0e 	bge	r22,r17,1002684 <___vfprintf_internal_r+0x18e8>
 1002010:	01004074 	movhi	r4,257
 1002014:	213f6584 	addi	r4,r4,-618
 1002018:	d9002b15 	stw	r4,172(sp)
 100201c:	070001c4 	movi	fp,7
 1002020:	dcc02c17 	ldw	r19,176(sp)
 1002024:	00000306 	br	1002034 <___vfprintf_internal_r+0x1298>
 1002028:	42000204 	addi	r8,r8,8
 100202c:	8c7ffc04 	addi	r17,r17,-16
 1002030:	b441970e 	bge	r22,r17,1002690 <___vfprintf_internal_r+0x18f4>
 1002034:	18c00404 	addi	r3,r3,16
 1002038:	10800044 	addi	r2,r2,1
 100203c:	45000015 	stw	r20,0(r8)
 1002040:	45800115 	stw	r22,4(r8)
 1002044:	d8c02015 	stw	r3,128(sp)
 1002048:	d8801f15 	stw	r2,124(sp)
 100204c:	e0bff60e 	bge	fp,r2,1002028 <___vfprintf_internal_r+0x128c>
 1002050:	d9801e04 	addi	r6,sp,120
 1002054:	b80b883a 	mov	r5,r23
 1002058:	9809883a 	mov	r4,r19
 100205c:	10083980 	call	1008398 <__sprint_r>
 1002060:	103c501e 	bne	r2,zero,10011a4 <___vfprintf_internal_r+0x408>
 1002064:	d8c02017 	ldw	r3,128(sp)
 1002068:	d8801f17 	ldw	r2,124(sp)
 100206c:	da000404 	addi	r8,sp,16
 1002070:	003fee06 	br	100202c <___vfprintf_internal_r+0x1290>
 1002074:	d9002c17 	ldw	r4,176(sp)
 1002078:	d9801e04 	addi	r6,sp,120
 100207c:	b80b883a 	mov	r5,r23
 1002080:	10083980 	call	1008398 <__sprint_r>
 1002084:	103c471e 	bne	r2,zero,10011a4 <___vfprintf_internal_r+0x408>
 1002088:	d8c02017 	ldw	r3,128(sp)
 100208c:	df002787 	ldb	fp,158(sp)
 1002090:	da000404 	addi	r8,sp,16
 1002094:	003d5606 	br	10015f0 <___vfprintf_internal_r+0x854>
 1002098:	9080040c 	andi	r2,r18,16
 100209c:	10016126 	beq	r2,zero,1002624 <___vfprintf_internal_r+0x1888>
 10020a0:	d8802d17 	ldw	r2,180(sp)
 10020a4:	14c00017 	ldw	r19,0(r2)
 10020a8:	10800104 	addi	r2,r2,4
 10020ac:	d8802d15 	stw	r2,180(sp)
 10020b0:	982dd7fa 	srai	r22,r19,31
 10020b4:	b005883a 	mov	r2,r22
 10020b8:	003c8206 	br	10012c4 <___vfprintf_internal_r+0x528>
 10020bc:	9080040c 	andi	r2,r18,16
 10020c0:	10003526 	beq	r2,zero,1002198 <___vfprintf_internal_r+0x13fc>
 10020c4:	d9402d17 	ldw	r5,180(sp)
 10020c8:	d8c02917 	ldw	r3,164(sp)
 10020cc:	d8002785 	stb	zero,158(sp)
 10020d0:	28800104 	addi	r2,r5,4
 10020d4:	2cc00017 	ldw	r19,0(r5)
 10020d8:	002d883a 	mov	r22,zero
 10020dc:	18003716 	blt	r3,zero,10021bc <___vfprintf_internal_r+0x1420>
 10020e0:	00ffdfc4 	movi	r3,-129
 10020e4:	d8802d15 	stw	r2,180(sp)
 10020e8:	90e4703a 	and	r18,r18,r3
 10020ec:	0039883a 	mov	fp,zero
 10020f0:	983df326 	beq	r19,zero,10018c0 <___vfprintf_internal_r+0xb24>
 10020f4:	00800244 	movi	r2,9
 10020f8:	14fc7b36 	bltu	r2,r19,10012e8 <___vfprintf_internal_r+0x54c>
 10020fc:	d8c02817 	ldw	r3,160(sp)
 1002100:	dc001dc4 	addi	r16,sp,119
 1002104:	9cc00c04 	addi	r19,r19,48
 1002108:	1c07c83a 	sub	r3,r3,r16
 100210c:	dcc01dc5 	stb	r19,119(sp)
 1002110:	d8c02e15 	stw	r3,184(sp)
 1002114:	003ce806 	br	10014b8 <___vfprintf_internal_r+0x71c>
 1002118:	d8803317 	ldw	r2,204(sp)
 100211c:	143fffc4 	addi	r16,r2,-1
 1002120:	043f4d0e 	bge	zero,r16,1001e58 <___vfprintf_internal_r+0x10bc>
 1002124:	07000404 	movi	fp,16
 1002128:	e400810e 	bge	fp,r16,1002330 <___vfprintf_internal_r+0x1594>
 100212c:	01404074 	movhi	r5,257
 1002130:	297f6584 	addi	r5,r5,-618
 1002134:	d9402b15 	stw	r5,172(sp)
 1002138:	01c001c4 	movi	r7,7
 100213c:	dcc02c17 	ldw	r19,176(sp)
 1002140:	00000306 	br	1002150 <___vfprintf_internal_r+0x13b4>
 1002144:	b5800204 	addi	r22,r22,8
 1002148:	843ffc04 	addi	r16,r16,-16
 100214c:	e4007b0e 	bge	fp,r16,100233c <___vfprintf_internal_r+0x15a0>
 1002150:	18c00404 	addi	r3,r3,16
 1002154:	8c400044 	addi	r17,r17,1
 1002158:	b5000015 	stw	r20,0(r22)
 100215c:	b7000115 	stw	fp,4(r22)
 1002160:	d8c02015 	stw	r3,128(sp)
 1002164:	dc401f15 	stw	r17,124(sp)
 1002168:	3c7ff60e 	bge	r7,r17,1002144 <___vfprintf_internal_r+0x13a8>
 100216c:	d9801e04 	addi	r6,sp,120
 1002170:	b80b883a 	mov	r5,r23
 1002174:	9809883a 	mov	r4,r19
 1002178:	d9c03c15 	stw	r7,240(sp)
 100217c:	10083980 	call	1008398 <__sprint_r>
 1002180:	d9c03c17 	ldw	r7,240(sp)
 1002184:	103c071e 	bne	r2,zero,10011a4 <___vfprintf_internal_r+0x408>
 1002188:	d8c02017 	ldw	r3,128(sp)
 100218c:	dc401f17 	ldw	r17,124(sp)
 1002190:	dd800404 	addi	r22,sp,16
 1002194:	003fec06 	br	1002148 <___vfprintf_internal_r+0x13ac>
 1002198:	9080100c 	andi	r2,r18,64
 100219c:	d8002785 	stb	zero,158(sp)
 10021a0:	10010e26 	beq	r2,zero,10025dc <___vfprintf_internal_r+0x1840>
 10021a4:	d9002d17 	ldw	r4,180(sp)
 10021a8:	d9402917 	ldw	r5,164(sp)
 10021ac:	002d883a 	mov	r22,zero
 10021b0:	20800104 	addi	r2,r4,4
 10021b4:	24c0000b 	ldhu	r19,0(r4)
 10021b8:	283fc90e 	bge	r5,zero,10020e0 <___vfprintf_internal_r+0x1344>
 10021bc:	d8802d15 	stw	r2,180(sp)
 10021c0:	0039883a 	mov	fp,zero
 10021c4:	9d84b03a 	or	r2,r19,r22
 10021c8:	103c461e 	bne	r2,zero,10012e4 <___vfprintf_internal_r+0x548>
 10021cc:	00800044 	movi	r2,1
 10021d0:	003e6c06 	br	1001b84 <___vfprintf_internal_r+0xde8>
 10021d4:	d9002c17 	ldw	r4,176(sp)
 10021d8:	d9801e04 	addi	r6,sp,120
 10021dc:	b80b883a 	mov	r5,r23
 10021e0:	10083980 	call	1008398 <__sprint_r>
 10021e4:	103bef1e 	bne	r2,zero,10011a4 <___vfprintf_internal_r+0x408>
 10021e8:	d8c02017 	ldw	r3,128(sp)
 10021ec:	da000404 	addi	r8,sp,16
 10021f0:	d9003217 	ldw	r4,200(sp)
 10021f4:	d8802617 	ldw	r2,152(sp)
 10021f8:	d9403317 	ldw	r5,204(sp)
 10021fc:	8123883a 	add	r17,r16,r4
 1002200:	11400216 	blt	r2,r5,100220c <___vfprintf_internal_r+0x1470>
 1002204:	9100004c 	andi	r4,r18,1
 1002208:	20000d26 	beq	r4,zero,1002240 <___vfprintf_internal_r+0x14a4>
 100220c:	d9003717 	ldw	r4,220(sp)
 1002210:	d9403417 	ldw	r5,208(sp)
 1002214:	1907883a 	add	r3,r3,r4
 1002218:	d9001f17 	ldw	r4,124(sp)
 100221c:	41400015 	stw	r5,0(r8)
 1002220:	d9403717 	ldw	r5,220(sp)
 1002224:	21000044 	addi	r4,r4,1
 1002228:	d8c02015 	stw	r3,128(sp)
 100222c:	41400115 	stw	r5,4(r8)
 1002230:	d9001f15 	stw	r4,124(sp)
 1002234:	014001c4 	movi	r5,7
 1002238:	2901e816 	blt	r5,r4,10029dc <___vfprintf_internal_r+0x1c40>
 100223c:	42000204 	addi	r8,r8,8
 1002240:	d9003317 	ldw	r4,204(sp)
 1002244:	8121883a 	add	r16,r16,r4
 1002248:	2085c83a 	sub	r2,r4,r2
 100224c:	8461c83a 	sub	r16,r16,r17
 1002250:	1400010e 	bge	r2,r16,1002258 <___vfprintf_internal_r+0x14bc>
 1002254:	1021883a 	mov	r16,r2
 1002258:	04000a0e 	bge	zero,r16,1002284 <___vfprintf_internal_r+0x14e8>
 100225c:	d9001f17 	ldw	r4,124(sp)
 1002260:	1c07883a 	add	r3,r3,r16
 1002264:	44400015 	stw	r17,0(r8)
 1002268:	21000044 	addi	r4,r4,1
 100226c:	44000115 	stw	r16,4(r8)
 1002270:	d8c02015 	stw	r3,128(sp)
 1002274:	d9001f15 	stw	r4,124(sp)
 1002278:	014001c4 	movi	r5,7
 100227c:	2901fb16 	blt	r5,r4,1002a6c <___vfprintf_internal_r+0x1cd0>
 1002280:	42000204 	addi	r8,r8,8
 1002284:	8001f716 	blt	r16,zero,1002a64 <___vfprintf_internal_r+0x1cc8>
 1002288:	1421c83a 	sub	r16,r2,r16
 100228c:	043d380e 	bge	zero,r16,1001770 <___vfprintf_internal_r+0x9d4>
 1002290:	04400404 	movi	r17,16
 1002294:	d8801f17 	ldw	r2,124(sp)
 1002298:	8c3efb0e 	bge	r17,r16,1001e88 <___vfprintf_internal_r+0x10ec>
 100229c:	01404074 	movhi	r5,257
 10022a0:	297f6584 	addi	r5,r5,-618
 10022a4:	d9402b15 	stw	r5,172(sp)
 10022a8:	058001c4 	movi	r22,7
 10022ac:	dcc02c17 	ldw	r19,176(sp)
 10022b0:	00000306 	br	10022c0 <___vfprintf_internal_r+0x1524>
 10022b4:	42000204 	addi	r8,r8,8
 10022b8:	843ffc04 	addi	r16,r16,-16
 10022bc:	8c3ef50e 	bge	r17,r16,1001e94 <___vfprintf_internal_r+0x10f8>
 10022c0:	18c00404 	addi	r3,r3,16
 10022c4:	10800044 	addi	r2,r2,1
 10022c8:	45000015 	stw	r20,0(r8)
 10022cc:	44400115 	stw	r17,4(r8)
 10022d0:	d8c02015 	stw	r3,128(sp)
 10022d4:	d8801f15 	stw	r2,124(sp)
 10022d8:	b0bff60e 	bge	r22,r2,10022b4 <___vfprintf_internal_r+0x1518>
 10022dc:	d9801e04 	addi	r6,sp,120
 10022e0:	b80b883a 	mov	r5,r23
 10022e4:	9809883a 	mov	r4,r19
 10022e8:	10083980 	call	1008398 <__sprint_r>
 10022ec:	103bad1e 	bne	r2,zero,10011a4 <___vfprintf_internal_r+0x408>
 10022f0:	d8c02017 	ldw	r3,128(sp)
 10022f4:	d8801f17 	ldw	r2,124(sp)
 10022f8:	da000404 	addi	r8,sp,16
 10022fc:	003fee06 	br	10022b8 <___vfprintf_internal_r+0x151c>
 1002300:	9088703a 	and	r4,r18,r2
 1002304:	203eab1e 	bne	r4,zero,1001db4 <___vfprintf_internal_r+0x1018>
 1002308:	dc401f17 	ldw	r17,124(sp)
 100230c:	40800115 	stw	r2,4(r8)
 1002310:	44000015 	stw	r16,0(r8)
 1002314:	8c400044 	addi	r17,r17,1
 1002318:	d8c02015 	stw	r3,128(sp)
 100231c:	dc401f15 	stw	r17,124(sp)
 1002320:	008001c4 	movi	r2,7
 1002324:	14400e16 	blt	r2,r17,1002360 <___vfprintf_internal_r+0x15c4>
 1002328:	45800204 	addi	r22,r8,8
 100232c:	003eca06 	br	1001e58 <___vfprintf_internal_r+0x10bc>
 1002330:	01004074 	movhi	r4,257
 1002334:	213f6584 	addi	r4,r4,-618
 1002338:	d9002b15 	stw	r4,172(sp)
 100233c:	d8802b17 	ldw	r2,172(sp)
 1002340:	1c07883a 	add	r3,r3,r16
 1002344:	8c400044 	addi	r17,r17,1
 1002348:	b0800015 	stw	r2,0(r22)
 100234c:	b4000115 	stw	r16,4(r22)
 1002350:	d8c02015 	stw	r3,128(sp)
 1002354:	dc401f15 	stw	r17,124(sp)
 1002358:	008001c4 	movi	r2,7
 100235c:	147ebd0e 	bge	r2,r17,1001e54 <___vfprintf_internal_r+0x10b8>
 1002360:	d9002c17 	ldw	r4,176(sp)
 1002364:	d9801e04 	addi	r6,sp,120
 1002368:	b80b883a 	mov	r5,r23
 100236c:	10083980 	call	1008398 <__sprint_r>
 1002370:	103b8c1e 	bne	r2,zero,10011a4 <___vfprintf_internal_r+0x408>
 1002374:	d8c02017 	ldw	r3,128(sp)
 1002378:	dc401f17 	ldw	r17,124(sp)
 100237c:	dd800404 	addi	r22,sp,16
 1002380:	003eb506 	br	1001e58 <___vfprintf_internal_r+0x10bc>
 1002384:	d9002c17 	ldw	r4,176(sp)
 1002388:	d9801e04 	addi	r6,sp,120
 100238c:	b80b883a 	mov	r5,r23
 1002390:	10083980 	call	1008398 <__sprint_r>
 1002394:	103b831e 	bne	r2,zero,10011a4 <___vfprintf_internal_r+0x408>
 1002398:	d8c02017 	ldw	r3,128(sp)
 100239c:	dc401f17 	ldw	r17,124(sp)
 10023a0:	da000404 	addi	r8,sp,16
 10023a4:	003e8d06 	br	1001ddc <___vfprintf_internal_r+0x1040>
 10023a8:	d9002c17 	ldw	r4,176(sp)
 10023ac:	d9801e04 	addi	r6,sp,120
 10023b0:	b80b883a 	mov	r5,r23
 10023b4:	10083980 	call	1008398 <__sprint_r>
 10023b8:	103b7a1e 	bne	r2,zero,10011a4 <___vfprintf_internal_r+0x408>
 10023bc:	d8c02017 	ldw	r3,128(sp)
 10023c0:	dc401f17 	ldw	r17,124(sp)
 10023c4:	dd800404 	addi	r22,sp,16
 10023c8:	003e8f06 	br	1001e08 <___vfprintf_internal_r+0x106c>
 10023cc:	0027883a 	mov	r19,zero
 10023d0:	003f4a06 	br	10020fc <___vfprintf_internal_r+0x1360>
 10023d4:	d9002c17 	ldw	r4,176(sp)
 10023d8:	d9801e04 	addi	r6,sp,120
 10023dc:	b80b883a 	mov	r5,r23
 10023e0:	10083980 	call	1008398 <__sprint_r>
 10023e4:	103b6f1e 	bne	r2,zero,10011a4 <___vfprintf_internal_r+0x408>
 10023e8:	d8c02017 	ldw	r3,128(sp)
 10023ec:	da000404 	addi	r8,sp,16
 10023f0:	003c9d06 	br	1001668 <___vfprintf_internal_r+0x8cc>
 10023f4:	04e7c83a 	sub	r19,zero,r19
 10023f8:	9804c03a 	cmpne	r2,r19,zero
 10023fc:	05adc83a 	sub	r22,zero,r22
 1002400:	b0adc83a 	sub	r22,r22,r2
 1002404:	d8802917 	ldw	r2,164(sp)
 1002408:	07000b44 	movi	fp,45
 100240c:	df002785 	stb	fp,158(sp)
 1002410:	10017b16 	blt	r2,zero,1002a00 <___vfprintf_internal_r+0x1c64>
 1002414:	00bfdfc4 	movi	r2,-129
 1002418:	90a4703a 	and	r18,r18,r2
 100241c:	003bb106 	br	10012e4 <___vfprintf_internal_r+0x548>
 1002420:	d9003617 	ldw	r4,216(sp)
 1002424:	d9403817 	ldw	r5,224(sp)
 1002428:	da003d15 	stw	r8,244(sp)
 100242c:	1007fbc0 	call	1007fbc <__fpclassifyd>
 1002430:	da003d17 	ldw	r8,244(sp)
 1002434:	1000f026 	beq	r2,zero,10027f8 <___vfprintf_internal_r+0x1a5c>
 1002438:	d9002917 	ldw	r4,164(sp)
 100243c:	05bff7c4 	movi	r22,-33
 1002440:	00bfffc4 	movi	r2,-1
 1002444:	8dac703a 	and	r22,r17,r22
 1002448:	20820026 	beq	r4,r2,1002c4c <___vfprintf_internal_r+0x1eb0>
 100244c:	008011c4 	movi	r2,71
 1002450:	b081f726 	beq	r22,r2,1002c30 <___vfprintf_internal_r+0x1e94>
 1002454:	d9003817 	ldw	r4,224(sp)
 1002458:	90c04014 	ori	r3,r18,256
 100245c:	d8c02b15 	stw	r3,172(sp)
 1002460:	20021516 	blt	r4,zero,1002cb8 <___vfprintf_internal_r+0x1f1c>
 1002464:	dcc03817 	ldw	r19,224(sp)
 1002468:	d8002a05 	stb	zero,168(sp)
 100246c:	00801984 	movi	r2,102
 1002470:	8881f926 	beq	r17,r2,1002c58 <___vfprintf_internal_r+0x1ebc>
 1002474:	00801184 	movi	r2,70
 1002478:	88821c26 	beq	r17,r2,1002cec <___vfprintf_internal_r+0x1f50>
 100247c:	00801144 	movi	r2,69
 1002480:	b081ef26 	beq	r22,r2,1002c40 <___vfprintf_internal_r+0x1ea4>
 1002484:	d8c02917 	ldw	r3,164(sp)
 1002488:	d8802104 	addi	r2,sp,132
 100248c:	d8800315 	stw	r2,12(sp)
 1002490:	d9403617 	ldw	r5,216(sp)
 1002494:	d8802504 	addi	r2,sp,148
 1002498:	d9002c17 	ldw	r4,176(sp)
 100249c:	d8800215 	stw	r2,8(sp)
 10024a0:	d8802604 	addi	r2,sp,152
 10024a4:	d8c00015 	stw	r3,0(sp)
 10024a8:	d8800115 	stw	r2,4(sp)
 10024ac:	01c00084 	movi	r7,2
 10024b0:	980d883a 	mov	r6,r19
 10024b4:	d8c03c15 	stw	r3,240(sp)
 10024b8:	da003d15 	stw	r8,244(sp)
 10024bc:	10033c00 	call	10033c0 <_dtoa_r>
 10024c0:	1021883a 	mov	r16,r2
 10024c4:	008019c4 	movi	r2,103
 10024c8:	d8c03c17 	ldw	r3,240(sp)
 10024cc:	da003d17 	ldw	r8,244(sp)
 10024d0:	88817126 	beq	r17,r2,1002a98 <___vfprintf_internal_r+0x1cfc>
 10024d4:	008011c4 	movi	r2,71
 10024d8:	88829226 	beq	r17,r2,1002f24 <___vfprintf_internal_r+0x2188>
 10024dc:	80f9883a 	add	fp,r16,r3
 10024e0:	d9003617 	ldw	r4,216(sp)
 10024e4:	000d883a 	mov	r6,zero
 10024e8:	000f883a 	mov	r7,zero
 10024ec:	980b883a 	mov	r5,r19
 10024f0:	da003d15 	stw	r8,244(sp)
 10024f4:	100c0100 	call	100c010 <__eqdf2>
 10024f8:	da003d17 	ldw	r8,244(sp)
 10024fc:	10018d26 	beq	r2,zero,1002b34 <___vfprintf_internal_r+0x1d98>
 1002500:	d8802117 	ldw	r2,132(sp)
 1002504:	1700062e 	bgeu	r2,fp,1002520 <___vfprintf_internal_r+0x1784>
 1002508:	01000c04 	movi	r4,48
 100250c:	10c00044 	addi	r3,r2,1
 1002510:	d8c02115 	stw	r3,132(sp)
 1002514:	11000005 	stb	r4,0(r2)
 1002518:	d8802117 	ldw	r2,132(sp)
 100251c:	173ffb36 	bltu	r2,fp,100250c <___vfprintf_internal_r+0x1770>
 1002520:	1405c83a 	sub	r2,r2,r16
 1002524:	d8803315 	stw	r2,204(sp)
 1002528:	008011c4 	movi	r2,71
 100252c:	b0817626 	beq	r22,r2,1002b08 <___vfprintf_internal_r+0x1d6c>
 1002530:	00801944 	movi	r2,101
 1002534:	1442810e 	bge	r2,r17,1002f3c <___vfprintf_internal_r+0x21a0>
 1002538:	d8c02617 	ldw	r3,152(sp)
 100253c:	00801984 	movi	r2,102
 1002540:	d8c03215 	stw	r3,200(sp)
 1002544:	8881fe26 	beq	r17,r2,1002d40 <___vfprintf_internal_r+0x1fa4>
 1002548:	d8c03217 	ldw	r3,200(sp)
 100254c:	d9003317 	ldw	r4,204(sp)
 1002550:	1901dd16 	blt	r3,r4,1002cc8 <___vfprintf_internal_r+0x1f2c>
 1002554:	9480004c 	andi	r18,r18,1
 1002558:	90022b1e 	bne	r18,zero,1002e08 <___vfprintf_internal_r+0x206c>
 100255c:	1805883a 	mov	r2,r3
 1002560:	18028016 	blt	r3,zero,1002f64 <___vfprintf_internal_r+0x21c8>
 1002564:	d8c03217 	ldw	r3,200(sp)
 1002568:	044019c4 	movi	r17,103
 100256c:	d8c02e15 	stw	r3,184(sp)
 1002570:	df002a07 	ldb	fp,168(sp)
 1002574:	e001531e 	bne	fp,zero,1002ac4 <___vfprintf_internal_r+0x1d28>
 1002578:	df002783 	ldbu	fp,158(sp)
 100257c:	d8802a15 	stw	r2,168(sp)
 1002580:	dc802b17 	ldw	r18,172(sp)
 1002584:	d8002915 	stw	zero,164(sp)
 1002588:	003bd106 	br	10014d0 <___vfprintf_internal_r+0x734>
 100258c:	d8802d17 	ldw	r2,180(sp)
 1002590:	d8c02d17 	ldw	r3,180(sp)
 1002594:	d9002d17 	ldw	r4,180(sp)
 1002598:	10800017 	ldw	r2,0(r2)
 100259c:	18c00117 	ldw	r3,4(r3)
 10025a0:	21000204 	addi	r4,r4,8
 10025a4:	d8803615 	stw	r2,216(sp)
 10025a8:	d8c03815 	stw	r3,224(sp)
 10025ac:	d9002d15 	stw	r4,180(sp)
 10025b0:	003b7506 	br	1001388 <___vfprintf_internal_r+0x5ec>
 10025b4:	ac400007 	ldb	r17,0(r21)
 10025b8:	003a5906 	br	1000f20 <___vfprintf_internal_r+0x184>
 10025bc:	9080100c 	andi	r2,r18,64
 10025c0:	1000a826 	beq	r2,zero,1002864 <___vfprintf_internal_r+0x1ac8>
 10025c4:	d9002d17 	ldw	r4,180(sp)
 10025c8:	002d883a 	mov	r22,zero
 10025cc:	24c0000b 	ldhu	r19,0(r4)
 10025d0:	21000104 	addi	r4,r4,4
 10025d4:	d9002d15 	stw	r4,180(sp)
 10025d8:	003ccb06 	br	1001908 <___vfprintf_internal_r+0xb6c>
 10025dc:	d8c02d17 	ldw	r3,180(sp)
 10025e0:	d9002917 	ldw	r4,164(sp)
 10025e4:	002d883a 	mov	r22,zero
 10025e8:	18800104 	addi	r2,r3,4
 10025ec:	1cc00017 	ldw	r19,0(r3)
 10025f0:	203ebb0e 	bge	r4,zero,10020e0 <___vfprintf_internal_r+0x1344>
 10025f4:	003ef106 	br	10021bc <___vfprintf_internal_r+0x1420>
 10025f8:	9080040c 	andi	r2,r18,16
 10025fc:	1000921e 	bne	r2,zero,1002848 <___vfprintf_internal_r+0x1aac>
 1002600:	9480100c 	andi	r18,r18,64
 1002604:	90013926 	beq	r18,zero,1002aec <___vfprintf_internal_r+0x1d50>
 1002608:	d9002d17 	ldw	r4,180(sp)
 100260c:	d9402f17 	ldw	r5,188(sp)
 1002610:	20800017 	ldw	r2,0(r4)
 1002614:	21000104 	addi	r4,r4,4
 1002618:	d9002d15 	stw	r4,180(sp)
 100261c:	1140000d 	sth	r5,0(r2)
 1002620:	003a1606 	br	1000e7c <___vfprintf_internal_r+0xe0>
 1002624:	9080100c 	andi	r2,r18,64
 1002628:	10008026 	beq	r2,zero,100282c <___vfprintf_internal_r+0x1a90>
 100262c:	d8c02d17 	ldw	r3,180(sp)
 1002630:	1cc0000f 	ldh	r19,0(r3)
 1002634:	18c00104 	addi	r3,r3,4
 1002638:	d8c02d15 	stw	r3,180(sp)
 100263c:	982dd7fa 	srai	r22,r19,31
 1002640:	b005883a 	mov	r2,r22
 1002644:	003b1f06 	br	10012c4 <___vfprintf_internal_r+0x528>
 1002648:	9080100c 	andi	r2,r18,64
 100264c:	d8002785 	stb	zero,158(sp)
 1002650:	10008a1e 	bne	r2,zero,100287c <___vfprintf_internal_r+0x1ae0>
 1002654:	d9402d17 	ldw	r5,180(sp)
 1002658:	d8c02917 	ldw	r3,164(sp)
 100265c:	002d883a 	mov	r22,zero
 1002660:	28800104 	addi	r2,r5,4
 1002664:	2cc00017 	ldw	r19,0(r5)
 1002668:	183e4b0e 	bge	r3,zero,1001f98 <___vfprintf_internal_r+0x11fc>
 100266c:	9d86b03a 	or	r3,r19,r22
 1002670:	d8802d15 	stw	r2,180(sp)
 1002674:	183e4c1e 	bne	r3,zero,1001fa8 <___vfprintf_internal_r+0x120c>
 1002678:	0039883a 	mov	fp,zero
 100267c:	0005883a 	mov	r2,zero
 1002680:	003d4006 	br	1001b84 <___vfprintf_internal_r+0xde8>
 1002684:	01404074 	movhi	r5,257
 1002688:	297f6584 	addi	r5,r5,-618
 100268c:	d9402b15 	stw	r5,172(sp)
 1002690:	d9402b17 	ldw	r5,172(sp)
 1002694:	1c47883a 	add	r3,r3,r17
 1002698:	10800044 	addi	r2,r2,1
 100269c:	41400015 	stw	r5,0(r8)
 10026a0:	44400115 	stw	r17,4(r8)
 10026a4:	d8c02015 	stw	r3,128(sp)
 10026a8:	d8801f15 	stw	r2,124(sp)
 10026ac:	010001c4 	movi	r4,7
 10026b0:	20bec816 	blt	r4,r2,10021d4 <___vfprintf_internal_r+0x1438>
 10026b4:	42000204 	addi	r8,r8,8
 10026b8:	003ecd06 	br	10021f0 <___vfprintf_internal_r+0x1454>
 10026bc:	d9002917 	ldw	r4,164(sp)
 10026c0:	d8002785 	stb	zero,158(sp)
 10026c4:	203d2d16 	blt	r4,zero,1001b7c <___vfprintf_internal_r+0xde0>
 10026c8:	00bfdfc4 	movi	r2,-129
 10026cc:	90a4703a 	and	r18,r18,r2
 10026d0:	003a9106 	br	1001118 <___vfprintf_internal_r+0x37c>
 10026d4:	01004074 	movhi	r4,257
 10026d8:	213f6584 	addi	r4,r4,-618
 10026dc:	d9002b15 	stw	r4,172(sp)
 10026e0:	003c0c06 	br	1001714 <___vfprintf_internal_r+0x978>
 10026e4:	d9002c17 	ldw	r4,176(sp)
 10026e8:	d9801e04 	addi	r6,sp,120
 10026ec:	b80b883a 	mov	r5,r23
 10026f0:	10083980 	call	1008398 <__sprint_r>
 10026f4:	103aab1e 	bne	r2,zero,10011a4 <___vfprintf_internal_r+0x408>
 10026f8:	d8c02017 	ldw	r3,128(sp)
 10026fc:	da000404 	addi	r8,sp,16
 1002700:	003d4106 	br	1001c08 <___vfprintf_internal_r+0xe6c>
 1002704:	d8801f17 	ldw	r2,124(sp)
 1002708:	01404074 	movhi	r5,257
 100270c:	01000044 	movi	r4,1
 1002710:	18c00044 	addi	r3,r3,1
 1002714:	10800044 	addi	r2,r2,1
 1002718:	297f6504 	addi	r5,r5,-620
 100271c:	41000115 	stw	r4,4(r8)
 1002720:	41400015 	stw	r5,0(r8)
 1002724:	d8c02015 	stw	r3,128(sp)
 1002728:	d8801f15 	stw	r2,124(sp)
 100272c:	010001c4 	movi	r4,7
 1002730:	20805c16 	blt	r4,r2,10028a4 <___vfprintf_internal_r+0x1b08>
 1002734:	42000204 	addi	r8,r8,8
 1002738:	8800041e 	bne	r17,zero,100274c <___vfprintf_internal_r+0x19b0>
 100273c:	d8803317 	ldw	r2,204(sp)
 1002740:	1000021e 	bne	r2,zero,100274c <___vfprintf_internal_r+0x19b0>
 1002744:	9080004c 	andi	r2,r18,1
 1002748:	103c0926 	beq	r2,zero,1001770 <___vfprintf_internal_r+0x9d4>
 100274c:	d9003717 	ldw	r4,220(sp)
 1002750:	d8801f17 	ldw	r2,124(sp)
 1002754:	d9403417 	ldw	r5,208(sp)
 1002758:	20c7883a 	add	r3,r4,r3
 100275c:	10800044 	addi	r2,r2,1
 1002760:	41000115 	stw	r4,4(r8)
 1002764:	41400015 	stw	r5,0(r8)
 1002768:	d8c02015 	stw	r3,128(sp)
 100276c:	d8801f15 	stw	r2,124(sp)
 1002770:	010001c4 	movi	r4,7
 1002774:	20812116 	blt	r4,r2,1002bfc <___vfprintf_internal_r+0x1e60>
 1002778:	42000204 	addi	r8,r8,8
 100277c:	0463c83a 	sub	r17,zero,r17
 1002780:	0440730e 	bge	zero,r17,1002950 <___vfprintf_internal_r+0x1bb4>
 1002784:	05800404 	movi	r22,16
 1002788:	b440860e 	bge	r22,r17,10029a4 <___vfprintf_internal_r+0x1c08>
 100278c:	01404074 	movhi	r5,257
 1002790:	297f6584 	addi	r5,r5,-618
 1002794:	d9402b15 	stw	r5,172(sp)
 1002798:	070001c4 	movi	fp,7
 100279c:	dcc02c17 	ldw	r19,176(sp)
 10027a0:	00000306 	br	10027b0 <___vfprintf_internal_r+0x1a14>
 10027a4:	42000204 	addi	r8,r8,8
 10027a8:	8c7ffc04 	addi	r17,r17,-16
 10027ac:	b440800e 	bge	r22,r17,10029b0 <___vfprintf_internal_r+0x1c14>
 10027b0:	18c00404 	addi	r3,r3,16
 10027b4:	10800044 	addi	r2,r2,1
 10027b8:	45000015 	stw	r20,0(r8)
 10027bc:	45800115 	stw	r22,4(r8)
 10027c0:	d8c02015 	stw	r3,128(sp)
 10027c4:	d8801f15 	stw	r2,124(sp)
 10027c8:	e0bff60e 	bge	fp,r2,10027a4 <___vfprintf_internal_r+0x1a08>
 10027cc:	d9801e04 	addi	r6,sp,120
 10027d0:	b80b883a 	mov	r5,r23
 10027d4:	9809883a 	mov	r4,r19
 10027d8:	10083980 	call	1008398 <__sprint_r>
 10027dc:	103a711e 	bne	r2,zero,10011a4 <___vfprintf_internal_r+0x408>
 10027e0:	d8c02017 	ldw	r3,128(sp)
 10027e4:	d8801f17 	ldw	r2,124(sp)
 10027e8:	da000404 	addi	r8,sp,16
 10027ec:	003fee06 	br	10027a8 <___vfprintf_internal_r+0x1a0c>
 10027f0:	00bfffc4 	movi	r2,-1
 10027f4:	003a6f06 	br	10011b4 <___vfprintf_internal_r+0x418>
 10027f8:	008011c4 	movi	r2,71
 10027fc:	1440b816 	blt	r2,r17,1002ae0 <___vfprintf_internal_r+0x1d44>
 1002800:	04004074 	movhi	r16,257
 1002804:	843f5704 	addi	r16,r16,-676
 1002808:	00c000c4 	movi	r3,3
 100280c:	00bfdfc4 	movi	r2,-129
 1002810:	d8c02a15 	stw	r3,168(sp)
 1002814:	90a4703a 	and	r18,r18,r2
 1002818:	df002783 	ldbu	fp,158(sp)
 100281c:	d8c02e15 	stw	r3,184(sp)
 1002820:	d8002915 	stw	zero,164(sp)
 1002824:	d8003215 	stw	zero,200(sp)
 1002828:	003b2906 	br	10014d0 <___vfprintf_internal_r+0x734>
 100282c:	d9002d17 	ldw	r4,180(sp)
 1002830:	24c00017 	ldw	r19,0(r4)
 1002834:	21000104 	addi	r4,r4,4
 1002838:	d9002d15 	stw	r4,180(sp)
 100283c:	982dd7fa 	srai	r22,r19,31
 1002840:	b005883a 	mov	r2,r22
 1002844:	003a9f06 	br	10012c4 <___vfprintf_internal_r+0x528>
 1002848:	d9402d17 	ldw	r5,180(sp)
 100284c:	d8c02f17 	ldw	r3,188(sp)
 1002850:	28800017 	ldw	r2,0(r5)
 1002854:	29400104 	addi	r5,r5,4
 1002858:	d9402d15 	stw	r5,180(sp)
 100285c:	10c00015 	stw	r3,0(r2)
 1002860:	00398606 	br	1000e7c <___vfprintf_internal_r+0xe0>
 1002864:	d9402d17 	ldw	r5,180(sp)
 1002868:	002d883a 	mov	r22,zero
 100286c:	2cc00017 	ldw	r19,0(r5)
 1002870:	29400104 	addi	r5,r5,4
 1002874:	d9402d15 	stw	r5,180(sp)
 1002878:	003c2306 	br	1001908 <___vfprintf_internal_r+0xb6c>
 100287c:	d8c02d17 	ldw	r3,180(sp)
 1002880:	d9002917 	ldw	r4,164(sp)
 1002884:	002d883a 	mov	r22,zero
 1002888:	18800104 	addi	r2,r3,4
 100288c:	1cc0000b 	ldhu	r19,0(r3)
 1002890:	203dc10e 	bge	r4,zero,1001f98 <___vfprintf_internal_r+0x11fc>
 1002894:	003f7506 	br	100266c <___vfprintf_internal_r+0x18d0>
 1002898:	04004074 	movhi	r16,257
 100289c:	843f5504 	addi	r16,r16,-684
 10028a0:	003acc06 	br	10013d4 <___vfprintf_internal_r+0x638>
 10028a4:	d9002c17 	ldw	r4,176(sp)
 10028a8:	d9801e04 	addi	r6,sp,120
 10028ac:	b80b883a 	mov	r5,r23
 10028b0:	10083980 	call	1008398 <__sprint_r>
 10028b4:	103a3b1e 	bne	r2,zero,10011a4 <___vfprintf_internal_r+0x408>
 10028b8:	dc402617 	ldw	r17,152(sp)
 10028bc:	d8c02017 	ldw	r3,128(sp)
 10028c0:	da000404 	addi	r8,sp,16
 10028c4:	003f9c06 	br	1002738 <___vfprintf_internal_r+0x199c>
 10028c8:	ac400043 	ldbu	r17,1(r21)
 10028cc:	94800814 	ori	r18,r18,32
 10028d0:	ad400044 	addi	r21,r21,1
 10028d4:	8c403fcc 	andi	r17,r17,255
 10028d8:	8c40201c 	xori	r17,r17,128
 10028dc:	8c7fe004 	addi	r17,r17,-128
 10028e0:	00398f06 	br	1000f20 <___vfprintf_internal_r+0x184>
 10028e4:	d8c02d15 	stw	r3,180(sp)
 10028e8:	0039883a 	mov	fp,zero
 10028ec:	003e3506 	br	10021c4 <___vfprintf_internal_r+0x1428>
 10028f0:	d9002c17 	ldw	r4,176(sp)
 10028f4:	d9801e04 	addi	r6,sp,120
 10028f8:	b80b883a 	mov	r5,r23
 10028fc:	10083980 	call	1008398 <__sprint_r>
 1002900:	103a281e 	bne	r2,zero,10011a4 <___vfprintf_internal_r+0x408>
 1002904:	d8c02017 	ldw	r3,128(sp)
 1002908:	da000404 	addi	r8,sp,16
 100290c:	003cd006 	br	1001c50 <___vfprintf_internal_r+0xeb4>
 1002910:	8009883a 	mov	r4,r16
 1002914:	da003d15 	stw	r8,244(sp)
 1002918:	1000d040 	call	1000d04 <strlen>
 100291c:	d8802e15 	stw	r2,184(sp)
 1002920:	da003d17 	ldw	r8,244(sp)
 1002924:	103c340e 	bge	r2,zero,10019f8 <___vfprintf_internal_r+0xc5c>
 1002928:	0005883a 	mov	r2,zero
 100292c:	003c3206 	br	10019f8 <___vfprintf_internal_r+0xc5c>
 1002930:	d9002c17 	ldw	r4,176(sp)
 1002934:	d9801e04 	addi	r6,sp,120
 1002938:	b80b883a 	mov	r5,r23
 100293c:	10083980 	call	1008398 <__sprint_r>
 1002940:	103a181e 	bne	r2,zero,10011a4 <___vfprintf_internal_r+0x408>
 1002944:	d8c02017 	ldw	r3,128(sp)
 1002948:	d8801f17 	ldw	r2,124(sp)
 100294c:	da000404 	addi	r8,sp,16
 1002950:	d9403317 	ldw	r5,204(sp)
 1002954:	10800044 	addi	r2,r2,1
 1002958:	44000015 	stw	r16,0(r8)
 100295c:	28c7883a 	add	r3,r5,r3
 1002960:	003b7d06 	br	1001758 <___vfprintf_internal_r+0x9bc>
 1002964:	01004074 	movhi	r4,257
 1002968:	213f6984 	addi	r4,r4,-602
 100296c:	d9003515 	stw	r4,212(sp)
 1002970:	003b1406 	br	10015c4 <___vfprintf_internal_r+0x828>
 1002974:	013fffc4 	movi	r4,-1
 1002978:	003a3506 	br	1001250 <___vfprintf_internal_r+0x4b4>
 100297c:	0023883a 	mov	r17,zero
 1002980:	003d9d06 	br	1001ff8 <___vfprintf_internal_r+0x125c>
 1002984:	d9002c17 	ldw	r4,176(sp)
 1002988:	d9801e04 	addi	r6,sp,120
 100298c:	b80b883a 	mov	r5,r23
 1002990:	10083980 	call	1008398 <__sprint_r>
 1002994:	103a031e 	bne	r2,zero,10011a4 <___vfprintf_internal_r+0x408>
 1002998:	d8c02017 	ldw	r3,128(sp)
 100299c:	da000404 	addi	r8,sp,16
 10029a0:	003d9406 	br	1001ff4 <___vfprintf_internal_r+0x1258>
 10029a4:	01004074 	movhi	r4,257
 10029a8:	213f6584 	addi	r4,r4,-618
 10029ac:	d9002b15 	stw	r4,172(sp)
 10029b0:	d9002b17 	ldw	r4,172(sp)
 10029b4:	1c47883a 	add	r3,r3,r17
 10029b8:	10800044 	addi	r2,r2,1
 10029bc:	41000015 	stw	r4,0(r8)
 10029c0:	44400115 	stw	r17,4(r8)
 10029c4:	d8c02015 	stw	r3,128(sp)
 10029c8:	d8801f15 	stw	r2,124(sp)
 10029cc:	010001c4 	movi	r4,7
 10029d0:	20bfd716 	blt	r4,r2,1002930 <___vfprintf_internal_r+0x1b94>
 10029d4:	42000204 	addi	r8,r8,8
 10029d8:	003fdd06 	br	1002950 <___vfprintf_internal_r+0x1bb4>
 10029dc:	d9002c17 	ldw	r4,176(sp)
 10029e0:	d9801e04 	addi	r6,sp,120
 10029e4:	b80b883a 	mov	r5,r23
 10029e8:	10083980 	call	1008398 <__sprint_r>
 10029ec:	1039ed1e 	bne	r2,zero,10011a4 <___vfprintf_internal_r+0x408>
 10029f0:	d8802617 	ldw	r2,152(sp)
 10029f4:	d8c02017 	ldw	r3,128(sp)
 10029f8:	da000404 	addi	r8,sp,16
 10029fc:	003e1006 	br	1002240 <___vfprintf_internal_r+0x14a4>
 1002a00:	00800044 	movi	r2,1
 1002a04:	10803fcc 	andi	r2,r2,255
 1002a08:	00c00044 	movi	r3,1
 1002a0c:	10fa3526 	beq	r2,r3,10012e4 <___vfprintf_internal_r+0x548>
 1002a10:	00c00084 	movi	r3,2
 1002a14:	10fbcb26 	beq	r2,r3,1001944 <___vfprintf_internal_r+0xba8>
 1002a18:	003a8f06 	br	1001458 <___vfprintf_internal_r+0x6bc>
 1002a1c:	01004074 	movhi	r4,257
 1002a20:	213f6984 	addi	r4,r4,-602
 1002a24:	d9003515 	stw	r4,212(sp)
 1002a28:	003b7606 	br	1001804 <___vfprintf_internal_r+0xa68>
 1002a2c:	d8802917 	ldw	r2,164(sp)
 1002a30:	00c00184 	movi	r3,6
 1002a34:	1880012e 	bgeu	r3,r2,1002a3c <___vfprintf_internal_r+0x1ca0>
 1002a38:	1805883a 	mov	r2,r3
 1002a3c:	d8802e15 	stw	r2,184(sp)
 1002a40:	1000ef16 	blt	r2,zero,1002e00 <___vfprintf_internal_r+0x2064>
 1002a44:	04004074 	movhi	r16,257
 1002a48:	d8802a15 	stw	r2,168(sp)
 1002a4c:	dcc02d15 	stw	r19,180(sp)
 1002a50:	d8002915 	stw	zero,164(sp)
 1002a54:	d8003215 	stw	zero,200(sp)
 1002a58:	843f6304 	addi	r16,r16,-628
 1002a5c:	0039883a 	mov	fp,zero
 1002a60:	003aa206 	br	10014ec <___vfprintf_internal_r+0x750>
 1002a64:	0021883a 	mov	r16,zero
 1002a68:	003e0706 	br	1002288 <___vfprintf_internal_r+0x14ec>
 1002a6c:	d9002c17 	ldw	r4,176(sp)
 1002a70:	d9801e04 	addi	r6,sp,120
 1002a74:	b80b883a 	mov	r5,r23
 1002a78:	10083980 	call	1008398 <__sprint_r>
 1002a7c:	1039c91e 	bne	r2,zero,10011a4 <___vfprintf_internal_r+0x408>
 1002a80:	d8802617 	ldw	r2,152(sp)
 1002a84:	d9403317 	ldw	r5,204(sp)
 1002a88:	d8c02017 	ldw	r3,128(sp)
 1002a8c:	da000404 	addi	r8,sp,16
 1002a90:	2885c83a 	sub	r2,r5,r2
 1002a94:	003dfb06 	br	1002284 <___vfprintf_internal_r+0x14e8>
 1002a98:	9080004c 	andi	r2,r18,1
 1002a9c:	103e8f1e 	bne	r2,zero,10024dc <___vfprintf_internal_r+0x1740>
 1002aa0:	d8802117 	ldw	r2,132(sp)
 1002aa4:	003e9e06 	br	1002520 <___vfprintf_internal_r+0x1784>
 1002aa8:	1025883a 	mov	r18,r2
 1002aac:	0039883a 	mov	fp,zero
 1002ab0:	00800084 	movi	r2,2
 1002ab4:	003fd306 	br	1002a04 <___vfprintf_internal_r+0x1c68>
 1002ab8:	07000b44 	movi	fp,45
 1002abc:	df002785 	stb	fp,158(sp)
 1002ac0:	003a4006 	br	10013c4 <___vfprintf_internal_r+0x628>
 1002ac4:	00c00b44 	movi	r3,45
 1002ac8:	d8c02785 	stb	r3,158(sp)
 1002acc:	d8802a15 	stw	r2,168(sp)
 1002ad0:	dc802b17 	ldw	r18,172(sp)
 1002ad4:	d8002915 	stw	zero,164(sp)
 1002ad8:	07000b44 	movi	fp,45
 1002adc:	003a8006 	br	10014e0 <___vfprintf_internal_r+0x744>
 1002ae0:	04004074 	movhi	r16,257
 1002ae4:	843f5804 	addi	r16,r16,-672
 1002ae8:	003f4706 	br	1002808 <___vfprintf_internal_r+0x1a6c>
 1002aec:	d8c02d17 	ldw	r3,180(sp)
 1002af0:	d9002f17 	ldw	r4,188(sp)
 1002af4:	18800017 	ldw	r2,0(r3)
 1002af8:	18c00104 	addi	r3,r3,4
 1002afc:	d8c02d15 	stw	r3,180(sp)
 1002b00:	11000015 	stw	r4,0(r2)
 1002b04:	0038dd06 	br	1000e7c <___vfprintf_internal_r+0xe0>
 1002b08:	dd802617 	ldw	r22,152(sp)
 1002b0c:	00bfff44 	movi	r2,-3
 1002b10:	b0801c16 	blt	r22,r2,1002b84 <___vfprintf_internal_r+0x1de8>
 1002b14:	d9402917 	ldw	r5,164(sp)
 1002b18:	2d801a16 	blt	r5,r22,1002b84 <___vfprintf_internal_r+0x1de8>
 1002b1c:	dd803215 	stw	r22,200(sp)
 1002b20:	003e8906 	br	1002548 <___vfprintf_internal_r+0x17ac>
 1002b24:	01004074 	movhi	r4,257
 1002b28:	213f6584 	addi	r4,r4,-618
 1002b2c:	d9002b15 	stw	r4,172(sp)
 1002b30:	003c9106 	br	1001d78 <___vfprintf_internal_r+0xfdc>
 1002b34:	e005883a 	mov	r2,fp
 1002b38:	003e7906 	br	1002520 <___vfprintf_internal_r+0x1784>
 1002b3c:	d9402917 	ldw	r5,164(sp)
 1002b40:	df002783 	ldbu	fp,158(sp)
 1002b44:	dcc02d15 	stw	r19,180(sp)
 1002b48:	d9402a15 	stw	r5,168(sp)
 1002b4c:	d9402e15 	stw	r5,184(sp)
 1002b50:	d8002915 	stw	zero,164(sp)
 1002b54:	d8003215 	stw	zero,200(sp)
 1002b58:	003a5d06 	br	10014d0 <___vfprintf_internal_r+0x734>
 1002b5c:	9080004c 	andi	r2,r18,1
 1002b60:	0039883a 	mov	fp,zero
 1002b64:	10000426 	beq	r2,zero,1002b78 <___vfprintf_internal_r+0x1ddc>
 1002b68:	00800c04 	movi	r2,48
 1002b6c:	dc001dc4 	addi	r16,sp,119
 1002b70:	d8801dc5 	stb	r2,119(sp)
 1002b74:	003b8006 	br	1001978 <___vfprintf_internal_r+0xbdc>
 1002b78:	d8002e15 	stw	zero,184(sp)
 1002b7c:	dc001e04 	addi	r16,sp,120
 1002b80:	003a4d06 	br	10014b8 <___vfprintf_internal_r+0x71c>
 1002b84:	8c7fff84 	addi	r17,r17,-2
 1002b88:	b5bfffc4 	addi	r22,r22,-1
 1002b8c:	dd802615 	stw	r22,152(sp)
 1002b90:	dc4022c5 	stb	r17,139(sp)
 1002b94:	b000bf16 	blt	r22,zero,1002e94 <___vfprintf_internal_r+0x20f8>
 1002b98:	00800ac4 	movi	r2,43
 1002b9c:	d8802305 	stb	r2,140(sp)
 1002ba0:	00800244 	movi	r2,9
 1002ba4:	15807016 	blt	r2,r22,1002d68 <___vfprintf_internal_r+0x1fcc>
 1002ba8:	00800c04 	movi	r2,48
 1002bac:	b5800c04 	addi	r22,r22,48
 1002bb0:	d8802345 	stb	r2,141(sp)
 1002bb4:	dd802385 	stb	r22,142(sp)
 1002bb8:	d88023c4 	addi	r2,sp,143
 1002bbc:	df0022c4 	addi	fp,sp,139
 1002bc0:	d8c03317 	ldw	r3,204(sp)
 1002bc4:	1739c83a 	sub	fp,r2,fp
 1002bc8:	d9003317 	ldw	r4,204(sp)
 1002bcc:	e0c7883a 	add	r3,fp,r3
 1002bd0:	df003a15 	stw	fp,232(sp)
 1002bd4:	d8c02e15 	stw	r3,184(sp)
 1002bd8:	00800044 	movi	r2,1
 1002bdc:	1100b30e 	bge	r2,r4,1002eac <___vfprintf_internal_r+0x2110>
 1002be0:	d8c02e17 	ldw	r3,184(sp)
 1002be4:	18c00044 	addi	r3,r3,1
 1002be8:	d8c02e15 	stw	r3,184(sp)
 1002bec:	1805883a 	mov	r2,r3
 1002bf0:	1800ac16 	blt	r3,zero,1002ea4 <___vfprintf_internal_r+0x2108>
 1002bf4:	d8003215 	stw	zero,200(sp)
 1002bf8:	003e5d06 	br	1002570 <___vfprintf_internal_r+0x17d4>
 1002bfc:	d9002c17 	ldw	r4,176(sp)
 1002c00:	d9801e04 	addi	r6,sp,120
 1002c04:	b80b883a 	mov	r5,r23
 1002c08:	10083980 	call	1008398 <__sprint_r>
 1002c0c:	1039651e 	bne	r2,zero,10011a4 <___vfprintf_internal_r+0x408>
 1002c10:	dc402617 	ldw	r17,152(sp)
 1002c14:	d8c02017 	ldw	r3,128(sp)
 1002c18:	d8801f17 	ldw	r2,124(sp)
 1002c1c:	da000404 	addi	r8,sp,16
 1002c20:	003ed606 	br	100277c <___vfprintf_internal_r+0x19e0>
 1002c24:	582b883a 	mov	r21,r11
 1002c28:	d8002915 	stw	zero,164(sp)
 1002c2c:	0038bd06 	br	1000f24 <___vfprintf_internal_r+0x188>
 1002c30:	d8802917 	ldw	r2,164(sp)
 1002c34:	103e071e 	bne	r2,zero,1002454 <___vfprintf_internal_r+0x16b8>
 1002c38:	dc002915 	stw	r16,164(sp)
 1002c3c:	003e0506 	br	1002454 <___vfprintf_internal_r+0x16b8>
 1002c40:	d9002917 	ldw	r4,164(sp)
 1002c44:	20c00044 	addi	r3,r4,1
 1002c48:	003e0f06 	br	1002488 <___vfprintf_internal_r+0x16ec>
 1002c4c:	01400184 	movi	r5,6
 1002c50:	d9402915 	stw	r5,164(sp)
 1002c54:	003dff06 	br	1002454 <___vfprintf_internal_r+0x16b8>
 1002c58:	d8802104 	addi	r2,sp,132
 1002c5c:	d8800315 	stw	r2,12(sp)
 1002c60:	d8802504 	addi	r2,sp,148
 1002c64:	d8800215 	stw	r2,8(sp)
 1002c68:	d8802604 	addi	r2,sp,152
 1002c6c:	d8800115 	stw	r2,4(sp)
 1002c70:	d8802917 	ldw	r2,164(sp)
 1002c74:	d9403617 	ldw	r5,216(sp)
 1002c78:	d9002c17 	ldw	r4,176(sp)
 1002c7c:	d8800015 	stw	r2,0(sp)
 1002c80:	01c000c4 	movi	r7,3
 1002c84:	980d883a 	mov	r6,r19
 1002c88:	da003d15 	stw	r8,244(sp)
 1002c8c:	10033c00 	call	10033c0 <_dtoa_r>
 1002c90:	d8c02917 	ldw	r3,164(sp)
 1002c94:	da003d17 	ldw	r8,244(sp)
 1002c98:	1021883a 	mov	r16,r2
 1002c9c:	10f9883a 	add	fp,r2,r3
 1002ca0:	81000007 	ldb	r4,0(r16)
 1002ca4:	00800c04 	movi	r2,48
 1002ca8:	20805e26 	beq	r4,r2,1002e24 <___vfprintf_internal_r+0x2088>
 1002cac:	d8c02617 	ldw	r3,152(sp)
 1002cb0:	e0f9883a 	add	fp,fp,r3
 1002cb4:	003e0a06 	br	10024e0 <___vfprintf_internal_r+0x1744>
 1002cb8:	00c00b44 	movi	r3,45
 1002cbc:	24e0003c 	xorhi	r19,r4,32768
 1002cc0:	d8c02a05 	stb	r3,168(sp)
 1002cc4:	003de906 	br	100246c <___vfprintf_internal_r+0x16d0>
 1002cc8:	d8c03217 	ldw	r3,200(sp)
 1002ccc:	00c07a0e 	bge	zero,r3,1002eb8 <___vfprintf_internal_r+0x211c>
 1002cd0:	00800044 	movi	r2,1
 1002cd4:	d9003317 	ldw	r4,204(sp)
 1002cd8:	1105883a 	add	r2,r2,r4
 1002cdc:	d8802e15 	stw	r2,184(sp)
 1002ce0:	10004e16 	blt	r2,zero,1002e1c <___vfprintf_internal_r+0x2080>
 1002ce4:	044019c4 	movi	r17,103
 1002ce8:	003e2106 	br	1002570 <___vfprintf_internal_r+0x17d4>
 1002cec:	d9002917 	ldw	r4,164(sp)
 1002cf0:	d8802104 	addi	r2,sp,132
 1002cf4:	d8800315 	stw	r2,12(sp)
 1002cf8:	d9000015 	stw	r4,0(sp)
 1002cfc:	d8802504 	addi	r2,sp,148
 1002d00:	d9403617 	ldw	r5,216(sp)
 1002d04:	d9002c17 	ldw	r4,176(sp)
 1002d08:	d8800215 	stw	r2,8(sp)
 1002d0c:	d8802604 	addi	r2,sp,152
 1002d10:	d8800115 	stw	r2,4(sp)
 1002d14:	01c000c4 	movi	r7,3
 1002d18:	980d883a 	mov	r6,r19
 1002d1c:	da003d15 	stw	r8,244(sp)
 1002d20:	10033c00 	call	10033c0 <_dtoa_r>
 1002d24:	d8c02917 	ldw	r3,164(sp)
 1002d28:	da003d17 	ldw	r8,244(sp)
 1002d2c:	1021883a 	mov	r16,r2
 1002d30:	00801184 	movi	r2,70
 1002d34:	80f9883a 	add	fp,r16,r3
 1002d38:	88bfd926 	beq	r17,r2,1002ca0 <___vfprintf_internal_r+0x1f04>
 1002d3c:	003de806 	br	10024e0 <___vfprintf_internal_r+0x1744>
 1002d40:	d9002917 	ldw	r4,164(sp)
 1002d44:	00c04d0e 	bge	zero,r3,1002e7c <___vfprintf_internal_r+0x20e0>
 1002d48:	2000441e 	bne	r4,zero,1002e5c <___vfprintf_internal_r+0x20c0>
 1002d4c:	9480004c 	andi	r18,r18,1
 1002d50:	9000421e 	bne	r18,zero,1002e5c <___vfprintf_internal_r+0x20c0>
 1002d54:	1805883a 	mov	r2,r3
 1002d58:	18007016 	blt	r3,zero,1002f1c <___vfprintf_internal_r+0x2180>
 1002d5c:	d8c03217 	ldw	r3,200(sp)
 1002d60:	d8c02e15 	stw	r3,184(sp)
 1002d64:	003e0206 	br	1002570 <___vfprintf_internal_r+0x17d4>
 1002d68:	df0022c4 	addi	fp,sp,139
 1002d6c:	dc002915 	stw	r16,164(sp)
 1002d70:	4027883a 	mov	r19,r8
 1002d74:	e021883a 	mov	r16,fp
 1002d78:	b009883a 	mov	r4,r22
 1002d7c:	01400284 	movi	r5,10
 1002d80:	100ad4c0 	call	100ad4c <__modsi3>
 1002d84:	10800c04 	addi	r2,r2,48
 1002d88:	843fffc4 	addi	r16,r16,-1
 1002d8c:	b009883a 	mov	r4,r22
 1002d90:	01400284 	movi	r5,10
 1002d94:	80800005 	stb	r2,0(r16)
 1002d98:	100acc80 	call	100acc8 <__divsi3>
 1002d9c:	102d883a 	mov	r22,r2
 1002da0:	00800244 	movi	r2,9
 1002da4:	15bff416 	blt	r2,r22,1002d78 <___vfprintf_internal_r+0x1fdc>
 1002da8:	9811883a 	mov	r8,r19
 1002dac:	b0800c04 	addi	r2,r22,48
 1002db0:	8027883a 	mov	r19,r16
 1002db4:	997fffc4 	addi	r5,r19,-1
 1002db8:	98bfffc5 	stb	r2,-1(r19)
 1002dbc:	dc002917 	ldw	r16,164(sp)
 1002dc0:	2f006a2e 	bgeu	r5,fp,1002f6c <___vfprintf_internal_r+0x21d0>
 1002dc4:	d9c02384 	addi	r7,sp,142
 1002dc8:	3ccfc83a 	sub	r7,r7,r19
 1002dcc:	d9002344 	addi	r4,sp,141
 1002dd0:	e1cf883a 	add	r7,fp,r7
 1002dd4:	00000106 	br	1002ddc <___vfprintf_internal_r+0x2040>
 1002dd8:	28800003 	ldbu	r2,0(r5)
 1002ddc:	20800005 	stb	r2,0(r4)
 1002de0:	21000044 	addi	r4,r4,1
 1002de4:	29400044 	addi	r5,r5,1
 1002de8:	393ffb1e 	bne	r7,r4,1002dd8 <___vfprintf_internal_r+0x203c>
 1002dec:	d8802304 	addi	r2,sp,140
 1002df0:	14c5c83a 	sub	r2,r2,r19
 1002df4:	d8c02344 	addi	r3,sp,141
 1002df8:	1885883a 	add	r2,r3,r2
 1002dfc:	003f7006 	br	1002bc0 <___vfprintf_internal_r+0x1e24>
 1002e00:	0005883a 	mov	r2,zero
 1002e04:	003f0f06 	br	1002a44 <___vfprintf_internal_r+0x1ca8>
 1002e08:	d8c03217 	ldw	r3,200(sp)
 1002e0c:	18c00044 	addi	r3,r3,1
 1002e10:	d8c02e15 	stw	r3,184(sp)
 1002e14:	1805883a 	mov	r2,r3
 1002e18:	183fb20e 	bge	r3,zero,1002ce4 <___vfprintf_internal_r+0x1f48>
 1002e1c:	0005883a 	mov	r2,zero
 1002e20:	003fb006 	br	1002ce4 <___vfprintf_internal_r+0x1f48>
 1002e24:	d9003617 	ldw	r4,216(sp)
 1002e28:	000d883a 	mov	r6,zero
 1002e2c:	000f883a 	mov	r7,zero
 1002e30:	980b883a 	mov	r5,r19
 1002e34:	d8c03c15 	stw	r3,240(sp)
 1002e38:	da003d15 	stw	r8,244(sp)
 1002e3c:	100c0100 	call	100c010 <__eqdf2>
 1002e40:	d8c03c17 	ldw	r3,240(sp)
 1002e44:	da003d17 	ldw	r8,244(sp)
 1002e48:	103f9826 	beq	r2,zero,1002cac <___vfprintf_internal_r+0x1f10>
 1002e4c:	00800044 	movi	r2,1
 1002e50:	10c7c83a 	sub	r3,r2,r3
 1002e54:	d8c02615 	stw	r3,152(sp)
 1002e58:	003f9506 	br	1002cb0 <___vfprintf_internal_r+0x1f14>
 1002e5c:	d9002917 	ldw	r4,164(sp)
 1002e60:	d8c03217 	ldw	r3,200(sp)
 1002e64:	20800044 	addi	r2,r4,1
 1002e68:	1885883a 	add	r2,r3,r2
 1002e6c:	d8802e15 	stw	r2,184(sp)
 1002e70:	103dbf0e 	bge	r2,zero,1002570 <___vfprintf_internal_r+0x17d4>
 1002e74:	0005883a 	mov	r2,zero
 1002e78:	003dbd06 	br	1002570 <___vfprintf_internal_r+0x17d4>
 1002e7c:	2000211e 	bne	r4,zero,1002f04 <___vfprintf_internal_r+0x2168>
 1002e80:	9480004c 	andi	r18,r18,1
 1002e84:	90001f1e 	bne	r18,zero,1002f04 <___vfprintf_internal_r+0x2168>
 1002e88:	00800044 	movi	r2,1
 1002e8c:	d8802e15 	stw	r2,184(sp)
 1002e90:	003db706 	br	1002570 <___vfprintf_internal_r+0x17d4>
 1002e94:	00800b44 	movi	r2,45
 1002e98:	05adc83a 	sub	r22,zero,r22
 1002e9c:	d8802305 	stb	r2,140(sp)
 1002ea0:	003f3f06 	br	1002ba0 <___vfprintf_internal_r+0x1e04>
 1002ea4:	0005883a 	mov	r2,zero
 1002ea8:	003f5206 	br	1002bf4 <___vfprintf_internal_r+0x1e58>
 1002eac:	90a4703a 	and	r18,r18,r2
 1002eb0:	903f4e26 	beq	r18,zero,1002bec <___vfprintf_internal_r+0x1e50>
 1002eb4:	003f4a06 	br	1002be0 <___vfprintf_internal_r+0x1e44>
 1002eb8:	00800084 	movi	r2,2
 1002ebc:	10c5c83a 	sub	r2,r2,r3
 1002ec0:	003f8406 	br	1002cd4 <___vfprintf_internal_r+0x1f38>
 1002ec4:	d8802d17 	ldw	r2,180(sp)
 1002ec8:	d9002d17 	ldw	r4,180(sp)
 1002ecc:	ac400043 	ldbu	r17,1(r21)
 1002ed0:	10800017 	ldw	r2,0(r2)
 1002ed4:	582b883a 	mov	r21,r11
 1002ed8:	d8802915 	stw	r2,164(sp)
 1002edc:	20800104 	addi	r2,r4,4
 1002ee0:	d9002917 	ldw	r4,164(sp)
 1002ee4:	d8802d15 	stw	r2,180(sp)
 1002ee8:	203e7a0e 	bge	r4,zero,10028d4 <___vfprintf_internal_r+0x1b38>
 1002eec:	8c403fcc 	andi	r17,r17,255
 1002ef0:	00bfffc4 	movi	r2,-1
 1002ef4:	8c40201c 	xori	r17,r17,128
 1002ef8:	d8802915 	stw	r2,164(sp)
 1002efc:	8c7fe004 	addi	r17,r17,-128
 1002f00:	00380706 	br	1000f20 <___vfprintf_internal_r+0x184>
 1002f04:	d8c02917 	ldw	r3,164(sp)
 1002f08:	18c00084 	addi	r3,r3,2
 1002f0c:	d8c02e15 	stw	r3,184(sp)
 1002f10:	1805883a 	mov	r2,r3
 1002f14:	183d960e 	bge	r3,zero,1002570 <___vfprintf_internal_r+0x17d4>
 1002f18:	003fd606 	br	1002e74 <___vfprintf_internal_r+0x20d8>
 1002f1c:	0005883a 	mov	r2,zero
 1002f20:	003f8e06 	br	1002d5c <___vfprintf_internal_r+0x1fc0>
 1002f24:	9080004c 	andi	r2,r18,1
 1002f28:	103f811e 	bne	r2,zero,1002d30 <___vfprintf_internal_r+0x1f94>
 1002f2c:	d8802117 	ldw	r2,132(sp)
 1002f30:	1405c83a 	sub	r2,r2,r16
 1002f34:	d8803315 	stw	r2,204(sp)
 1002f38:	b47ef326 	beq	r22,r17,1002b08 <___vfprintf_internal_r+0x1d6c>
 1002f3c:	dd802617 	ldw	r22,152(sp)
 1002f40:	003f1106 	br	1002b88 <___vfprintf_internal_r+0x1dec>
 1002f44:	d9c02785 	stb	r7,158(sp)
 1002f48:	00390406 	br	100135c <___vfprintf_internal_r+0x5c0>
 1002f4c:	d9c02785 	stb	r7,158(sp)
 1002f50:	0038d306 	br	10012a0 <___vfprintf_internal_r+0x504>
 1002f54:	d9c02785 	stb	r7,158(sp)
 1002f58:	003a6106 	br	10018e0 <___vfprintf_internal_r+0xb44>
 1002f5c:	d9c02785 	stb	r7,158(sp)
 1002f60:	003af806 	br	1001b44 <___vfprintf_internal_r+0xda8>
 1002f64:	0005883a 	mov	r2,zero
 1002f68:	003d7e06 	br	1002564 <___vfprintf_internal_r+0x17c8>
 1002f6c:	d8802344 	addi	r2,sp,141
 1002f70:	003f1306 	br	1002bc0 <___vfprintf_internal_r+0x1e24>
 1002f74:	d9c02785 	stb	r7,158(sp)
 1002f78:	00392306 	br	1001408 <___vfprintf_internal_r+0x66c>
 1002f7c:	d9c02785 	stb	r7,158(sp)
 1002f80:	003aa906 	br	1001a28 <___vfprintf_internal_r+0xc8c>
 1002f84:	d9c02785 	stb	r7,158(sp)
 1002f88:	003a3d06 	br	1001880 <___vfprintf_internal_r+0xae4>
 1002f8c:	d9c02785 	stb	r7,158(sp)
 1002f90:	003aca06 	br	1001abc <___vfprintf_internal_r+0xd20>

01002f94 <__vfprintf_internal>:
 1002f94:	00804074 	movhi	r2,257
 1002f98:	1086be04 	addi	r2,r2,6904
 1002f9c:	300f883a 	mov	r7,r6
 1002fa0:	280d883a 	mov	r6,r5
 1002fa4:	200b883a 	mov	r5,r4
 1002fa8:	11000017 	ldw	r4,0(r2)
 1002fac:	1000d9c1 	jmpi	1000d9c <___vfprintf_internal_r>

01002fb0 <__sbprintf>:
 1002fb0:	2880030b 	ldhu	r2,12(r5)
 1002fb4:	2ac01917 	ldw	r11,100(r5)
 1002fb8:	2a80038b 	ldhu	r10,14(r5)
 1002fbc:	2a400717 	ldw	r9,28(r5)
 1002fc0:	2a000917 	ldw	r8,36(r5)
 1002fc4:	defee204 	addi	sp,sp,-1144
 1002fc8:	00c10004 	movi	r3,1024
 1002fcc:	dc011a15 	stw	r16,1128(sp)
 1002fd0:	10bfff4c 	andi	r2,r2,65533
 1002fd4:	2821883a 	mov	r16,r5
 1002fd8:	d8cb883a 	add	r5,sp,r3
 1002fdc:	dc811c15 	stw	r18,1136(sp)
 1002fe0:	dc411b15 	stw	r17,1132(sp)
 1002fe4:	dfc11d15 	stw	ra,1140(sp)
 1002fe8:	2025883a 	mov	r18,r4
 1002fec:	d881030d 	sth	r2,1036(sp)
 1002ff0:	dac11915 	stw	r11,1124(sp)
 1002ff4:	da81038d 	sth	r10,1038(sp)
 1002ff8:	da410715 	stw	r9,1052(sp)
 1002ffc:	da010915 	stw	r8,1060(sp)
 1003000:	dec10015 	stw	sp,1024(sp)
 1003004:	dec10415 	stw	sp,1040(sp)
 1003008:	d8c10215 	stw	r3,1032(sp)
 100300c:	d8c10515 	stw	r3,1044(sp)
 1003010:	d8010615 	stw	zero,1048(sp)
 1003014:	1000d9c0 	call	1000d9c <___vfprintf_internal_r>
 1003018:	1023883a 	mov	r17,r2
 100301c:	10000416 	blt	r2,zero,1003030 <__sbprintf+0x80>
 1003020:	d9410004 	addi	r5,sp,1024
 1003024:	9009883a 	mov	r4,r18
 1003028:	1004c640 	call	1004c64 <_fflush_r>
 100302c:	10000d1e 	bne	r2,zero,1003064 <__sbprintf+0xb4>
 1003030:	d881030b 	ldhu	r2,1036(sp)
 1003034:	1080100c 	andi	r2,r2,64
 1003038:	10000326 	beq	r2,zero,1003048 <__sbprintf+0x98>
 100303c:	8080030b 	ldhu	r2,12(r16)
 1003040:	10801014 	ori	r2,r2,64
 1003044:	8080030d 	sth	r2,12(r16)
 1003048:	8805883a 	mov	r2,r17
 100304c:	dfc11d17 	ldw	ra,1140(sp)
 1003050:	dc811c17 	ldw	r18,1136(sp)
 1003054:	dc411b17 	ldw	r17,1132(sp)
 1003058:	dc011a17 	ldw	r16,1128(sp)
 100305c:	dec11e04 	addi	sp,sp,1144
 1003060:	f800283a 	ret
 1003064:	047fffc4 	movi	r17,-1
 1003068:	003ff106 	br	1003030 <__sbprintf+0x80>

0100306c <__swsetup_r>:
 100306c:	00804074 	movhi	r2,257
 1003070:	defffd04 	addi	sp,sp,-12
 1003074:	1086be04 	addi	r2,r2,6904
 1003078:	dc400115 	stw	r17,4(sp)
 100307c:	2023883a 	mov	r17,r4
 1003080:	11000017 	ldw	r4,0(r2)
 1003084:	dc000015 	stw	r16,0(sp)
 1003088:	dfc00215 	stw	ra,8(sp)
 100308c:	2821883a 	mov	r16,r5
 1003090:	20000226 	beq	r4,zero,100309c <__swsetup_r+0x30>
 1003094:	20800e17 	ldw	r2,56(r4)
 1003098:	10003126 	beq	r2,zero,1003160 <__swsetup_r+0xf4>
 100309c:	8080030b 	ldhu	r2,12(r16)
 10030a0:	10c0020c 	andi	r3,r2,8
 10030a4:	1009883a 	mov	r4,r2
 10030a8:	18000f26 	beq	r3,zero,10030e8 <__swsetup_r+0x7c>
 10030ac:	80c00417 	ldw	r3,16(r16)
 10030b0:	18001526 	beq	r3,zero,1003108 <__swsetup_r+0x9c>
 10030b4:	1100004c 	andi	r4,r2,1
 10030b8:	20001c1e 	bne	r4,zero,100312c <__swsetup_r+0xc0>
 10030bc:	1080008c 	andi	r2,r2,2
 10030c0:	1000291e 	bne	r2,zero,1003168 <__swsetup_r+0xfc>
 10030c4:	80800517 	ldw	r2,20(r16)
 10030c8:	80800215 	stw	r2,8(r16)
 10030cc:	18001c26 	beq	r3,zero,1003140 <__swsetup_r+0xd4>
 10030d0:	0005883a 	mov	r2,zero
 10030d4:	dfc00217 	ldw	ra,8(sp)
 10030d8:	dc400117 	ldw	r17,4(sp)
 10030dc:	dc000017 	ldw	r16,0(sp)
 10030e0:	dec00304 	addi	sp,sp,12
 10030e4:	f800283a 	ret
 10030e8:	2080040c 	andi	r2,r4,16
 10030ec:	10002e26 	beq	r2,zero,10031a8 <__swsetup_r+0x13c>
 10030f0:	2080010c 	andi	r2,r4,4
 10030f4:	10001e1e 	bne	r2,zero,1003170 <__swsetup_r+0x104>
 10030f8:	80c00417 	ldw	r3,16(r16)
 10030fc:	20800214 	ori	r2,r4,8
 1003100:	8080030d 	sth	r2,12(r16)
 1003104:	183feb1e 	bne	r3,zero,10030b4 <__swsetup_r+0x48>
 1003108:	1100a00c 	andi	r4,r2,640
 100310c:	01408004 	movi	r5,512
 1003110:	217fe826 	beq	r4,r5,10030b4 <__swsetup_r+0x48>
 1003114:	800b883a 	mov	r5,r16
 1003118:	8809883a 	mov	r4,r17
 100311c:	1005be40 	call	1005be4 <__smakebuf_r>
 1003120:	8080030b 	ldhu	r2,12(r16)
 1003124:	80c00417 	ldw	r3,16(r16)
 1003128:	003fe206 	br	10030b4 <__swsetup_r+0x48>
 100312c:	80800517 	ldw	r2,20(r16)
 1003130:	80000215 	stw	zero,8(r16)
 1003134:	0085c83a 	sub	r2,zero,r2
 1003138:	80800615 	stw	r2,24(r16)
 100313c:	183fe41e 	bne	r3,zero,10030d0 <__swsetup_r+0x64>
 1003140:	80c0030b 	ldhu	r3,12(r16)
 1003144:	0005883a 	mov	r2,zero
 1003148:	1900200c 	andi	r4,r3,128
 100314c:	203fe126 	beq	r4,zero,10030d4 <__swsetup_r+0x68>
 1003150:	18c01014 	ori	r3,r3,64
 1003154:	80c0030d 	sth	r3,12(r16)
 1003158:	00bfffc4 	movi	r2,-1
 100315c:	003fdd06 	br	10030d4 <__swsetup_r+0x68>
 1003160:	10050400 	call	1005040 <__sinit>
 1003164:	003fcd06 	br	100309c <__swsetup_r+0x30>
 1003168:	0005883a 	mov	r2,zero
 100316c:	003fd606 	br	10030c8 <__swsetup_r+0x5c>
 1003170:	81400c17 	ldw	r5,48(r16)
 1003174:	28000626 	beq	r5,zero,1003190 <__swsetup_r+0x124>
 1003178:	80801004 	addi	r2,r16,64
 100317c:	28800326 	beq	r5,r2,100318c <__swsetup_r+0x120>
 1003180:	8809883a 	mov	r4,r17
 1003184:	10051b40 	call	10051b4 <_free_r>
 1003188:	8100030b 	ldhu	r4,12(r16)
 100318c:	80000c15 	stw	zero,48(r16)
 1003190:	80c00417 	ldw	r3,16(r16)
 1003194:	00bff6c4 	movi	r2,-37
 1003198:	1108703a 	and	r4,r2,r4
 100319c:	80000115 	stw	zero,4(r16)
 10031a0:	80c00015 	stw	r3,0(r16)
 10031a4:	003fd506 	br	10030fc <__swsetup_r+0x90>
 10031a8:	00800244 	movi	r2,9
 10031ac:	88800015 	stw	r2,0(r17)
 10031b0:	20801014 	ori	r2,r4,64
 10031b4:	8080030d 	sth	r2,12(r16)
 10031b8:	00bfffc4 	movi	r2,-1
 10031bc:	003fc506 	br	10030d4 <__swsetup_r+0x68>

010031c0 <quorem>:
 10031c0:	defff704 	addi	sp,sp,-36
 10031c4:	dc800215 	stw	r18,8(sp)
 10031c8:	20800417 	ldw	r2,16(r4)
 10031cc:	2c800417 	ldw	r18,16(r5)
 10031d0:	dfc00815 	stw	ra,32(sp)
 10031d4:	ddc00715 	stw	r23,28(sp)
 10031d8:	dd800615 	stw	r22,24(sp)
 10031dc:	dd400515 	stw	r21,20(sp)
 10031e0:	dd000415 	stw	r20,16(sp)
 10031e4:	dcc00315 	stw	r19,12(sp)
 10031e8:	dc400115 	stw	r17,4(sp)
 10031ec:	dc000015 	stw	r16,0(sp)
 10031f0:	14807116 	blt	r2,r18,10033b8 <quorem+0x1f8>
 10031f4:	94bfffc4 	addi	r18,r18,-1
 10031f8:	94ad883a 	add	r22,r18,r18
 10031fc:	b5ad883a 	add	r22,r22,r22
 1003200:	2c400504 	addi	r17,r5,20
 1003204:	8da9883a 	add	r20,r17,r22
 1003208:	25400504 	addi	r21,r4,20
 100320c:	282f883a 	mov	r23,r5
 1003210:	adad883a 	add	r22,r21,r22
 1003214:	a1400017 	ldw	r5,0(r20)
 1003218:	2021883a 	mov	r16,r4
 100321c:	b1000017 	ldw	r4,0(r22)
 1003220:	29400044 	addi	r5,r5,1
 1003224:	100adc00 	call	100adc0 <__udivsi3>
 1003228:	1027883a 	mov	r19,r2
 100322c:	10002c26 	beq	r2,zero,10032e0 <quorem+0x120>
 1003230:	a813883a 	mov	r9,r21
 1003234:	880b883a 	mov	r5,r17
 1003238:	0009883a 	mov	r4,zero
 100323c:	000d883a 	mov	r6,zero
 1003240:	2a000017 	ldw	r8,0(r5)
 1003244:	49c00017 	ldw	r7,0(r9)
 1003248:	29400104 	addi	r5,r5,4
 100324c:	40bfffcc 	andi	r2,r8,65535
 1003250:	14c5383a 	mul	r2,r2,r19
 1003254:	4010d43a 	srli	r8,r8,16
 1003258:	38ffffcc 	andi	r3,r7,65535
 100325c:	1105883a 	add	r2,r2,r4
 1003260:	1008d43a 	srli	r4,r2,16
 1003264:	44d1383a 	mul	r8,r8,r19
 1003268:	198d883a 	add	r6,r3,r6
 100326c:	10ffffcc 	andi	r3,r2,65535
 1003270:	30c7c83a 	sub	r3,r6,r3
 1003274:	380ed43a 	srli	r7,r7,16
 1003278:	4105883a 	add	r2,r8,r4
 100327c:	180dd43a 	srai	r6,r3,16
 1003280:	113fffcc 	andi	r4,r2,65535
 1003284:	390fc83a 	sub	r7,r7,r4
 1003288:	398d883a 	add	r6,r7,r6
 100328c:	300e943a 	slli	r7,r6,16
 1003290:	18ffffcc 	andi	r3,r3,65535
 1003294:	1008d43a 	srli	r4,r2,16
 1003298:	38ceb03a 	or	r7,r7,r3
 100329c:	49c00015 	stw	r7,0(r9)
 10032a0:	300dd43a 	srai	r6,r6,16
 10032a4:	4a400104 	addi	r9,r9,4
 10032a8:	a17fe52e 	bgeu	r20,r5,1003240 <quorem+0x80>
 10032ac:	b0800017 	ldw	r2,0(r22)
 10032b0:	10000b1e 	bne	r2,zero,10032e0 <quorem+0x120>
 10032b4:	b0bfff04 	addi	r2,r22,-4
 10032b8:	a880082e 	bgeu	r21,r2,10032dc <quorem+0x11c>
 10032bc:	b0ffff17 	ldw	r3,-4(r22)
 10032c0:	18000326 	beq	r3,zero,10032d0 <quorem+0x110>
 10032c4:	00000506 	br	10032dc <quorem+0x11c>
 10032c8:	10c00017 	ldw	r3,0(r2)
 10032cc:	1800031e 	bne	r3,zero,10032dc <quorem+0x11c>
 10032d0:	10bfff04 	addi	r2,r2,-4
 10032d4:	94bfffc4 	addi	r18,r18,-1
 10032d8:	a8bffb36 	bltu	r21,r2,10032c8 <quorem+0x108>
 10032dc:	84800415 	stw	r18,16(r16)
 10032e0:	b80b883a 	mov	r5,r23
 10032e4:	8009883a 	mov	r4,r16
 10032e8:	10073240 	call	1007324 <__mcmp>
 10032ec:	10002616 	blt	r2,zero,1003388 <quorem+0x1c8>
 10032f0:	9cc00044 	addi	r19,r19,1
 10032f4:	a805883a 	mov	r2,r21
 10032f8:	000b883a 	mov	r5,zero
 10032fc:	11000017 	ldw	r4,0(r2)
 1003300:	89800017 	ldw	r6,0(r17)
 1003304:	10800104 	addi	r2,r2,4
 1003308:	20ffffcc 	andi	r3,r4,65535
 100330c:	194b883a 	add	r5,r3,r5
 1003310:	30ffffcc 	andi	r3,r6,65535
 1003314:	28c7c83a 	sub	r3,r5,r3
 1003318:	300cd43a 	srli	r6,r6,16
 100331c:	2008d43a 	srli	r4,r4,16
 1003320:	180bd43a 	srai	r5,r3,16
 1003324:	18ffffcc 	andi	r3,r3,65535
 1003328:	2189c83a 	sub	r4,r4,r6
 100332c:	2149883a 	add	r4,r4,r5
 1003330:	200c943a 	slli	r6,r4,16
 1003334:	8c400104 	addi	r17,r17,4
 1003338:	200bd43a 	srai	r5,r4,16
 100333c:	30c6b03a 	or	r3,r6,r3
 1003340:	10ffff15 	stw	r3,-4(r2)
 1003344:	a47fed2e 	bgeu	r20,r17,10032fc <quorem+0x13c>
 1003348:	9485883a 	add	r2,r18,r18
 100334c:	1085883a 	add	r2,r2,r2
 1003350:	a887883a 	add	r3,r21,r2
 1003354:	18800017 	ldw	r2,0(r3)
 1003358:	10000b1e 	bne	r2,zero,1003388 <quorem+0x1c8>
 100335c:	18bfff04 	addi	r2,r3,-4
 1003360:	a880082e 	bgeu	r21,r2,1003384 <quorem+0x1c4>
 1003364:	18ffff17 	ldw	r3,-4(r3)
 1003368:	18000326 	beq	r3,zero,1003378 <quorem+0x1b8>
 100336c:	00000506 	br	1003384 <quorem+0x1c4>
 1003370:	10c00017 	ldw	r3,0(r2)
 1003374:	1800031e 	bne	r3,zero,1003384 <quorem+0x1c4>
 1003378:	10bfff04 	addi	r2,r2,-4
 100337c:	94bfffc4 	addi	r18,r18,-1
 1003380:	a8bffb36 	bltu	r21,r2,1003370 <quorem+0x1b0>
 1003384:	84800415 	stw	r18,16(r16)
 1003388:	9805883a 	mov	r2,r19
 100338c:	dfc00817 	ldw	ra,32(sp)
 1003390:	ddc00717 	ldw	r23,28(sp)
 1003394:	dd800617 	ldw	r22,24(sp)
 1003398:	dd400517 	ldw	r21,20(sp)
 100339c:	dd000417 	ldw	r20,16(sp)
 10033a0:	dcc00317 	ldw	r19,12(sp)
 10033a4:	dc800217 	ldw	r18,8(sp)
 10033a8:	dc400117 	ldw	r17,4(sp)
 10033ac:	dc000017 	ldw	r16,0(sp)
 10033b0:	dec00904 	addi	sp,sp,36
 10033b4:	f800283a 	ret
 10033b8:	0005883a 	mov	r2,zero
 10033bc:	003ff306 	br	100338c <quorem+0x1cc>

010033c0 <_dtoa_r>:
 10033c0:	20801017 	ldw	r2,64(r4)
 10033c4:	deffde04 	addi	sp,sp,-136
 10033c8:	df002015 	stw	fp,128(sp)
 10033cc:	dcc01b15 	stw	r19,108(sp)
 10033d0:	dc801a15 	stw	r18,104(sp)
 10033d4:	dc401915 	stw	r17,100(sp)
 10033d8:	dc001815 	stw	r16,96(sp)
 10033dc:	dfc02115 	stw	ra,132(sp)
 10033e0:	ddc01f15 	stw	r23,124(sp)
 10033e4:	dd801e15 	stw	r22,120(sp)
 10033e8:	dd401d15 	stw	r21,116(sp)
 10033ec:	dd001c15 	stw	r20,112(sp)
 10033f0:	d9c00315 	stw	r7,12(sp)
 10033f4:	2039883a 	mov	fp,r4
 10033f8:	3023883a 	mov	r17,r6
 10033fc:	2825883a 	mov	r18,r5
 1003400:	dc002417 	ldw	r16,144(sp)
 1003404:	3027883a 	mov	r19,r6
 1003408:	10000826 	beq	r2,zero,100342c <_dtoa_r+0x6c>
 100340c:	21801117 	ldw	r6,68(r4)
 1003410:	00c00044 	movi	r3,1
 1003414:	100b883a 	mov	r5,r2
 1003418:	1986983a 	sll	r3,r3,r6
 100341c:	11800115 	stw	r6,4(r2)
 1003420:	10c00215 	stw	r3,8(r2)
 1003424:	1006b040 	call	1006b04 <_Bfree>
 1003428:	e0001015 	stw	zero,64(fp)
 100342c:	88002e16 	blt	r17,zero,10034e8 <_dtoa_r+0x128>
 1003430:	80000015 	stw	zero,0(r16)
 1003434:	889ffc2c 	andhi	r2,r17,32752
 1003438:	00dffc34 	movhi	r3,32752
 100343c:	10c01c26 	beq	r2,r3,10034b0 <_dtoa_r+0xf0>
 1003440:	000d883a 	mov	r6,zero
 1003444:	000f883a 	mov	r7,zero
 1003448:	9009883a 	mov	r4,r18
 100344c:	980b883a 	mov	r5,r19
 1003450:	100c0100 	call	100c010 <__eqdf2>
 1003454:	10002b1e 	bne	r2,zero,1003504 <_dtoa_r+0x144>
 1003458:	d9c02317 	ldw	r7,140(sp)
 100345c:	00800044 	movi	r2,1
 1003460:	38800015 	stw	r2,0(r7)
 1003464:	d8802517 	ldw	r2,148(sp)
 1003468:	10019e26 	beq	r2,zero,1003ae4 <_dtoa_r+0x724>
 100346c:	d8c02517 	ldw	r3,148(sp)
 1003470:	00804074 	movhi	r2,257
 1003474:	10bf6544 	addi	r2,r2,-619
 1003478:	18800015 	stw	r2,0(r3)
 100347c:	10bfffc4 	addi	r2,r2,-1
 1003480:	dfc02117 	ldw	ra,132(sp)
 1003484:	df002017 	ldw	fp,128(sp)
 1003488:	ddc01f17 	ldw	r23,124(sp)
 100348c:	dd801e17 	ldw	r22,120(sp)
 1003490:	dd401d17 	ldw	r21,116(sp)
 1003494:	dd001c17 	ldw	r20,112(sp)
 1003498:	dcc01b17 	ldw	r19,108(sp)
 100349c:	dc801a17 	ldw	r18,104(sp)
 10034a0:	dc401917 	ldw	r17,100(sp)
 10034a4:	dc001817 	ldw	r16,96(sp)
 10034a8:	dec02204 	addi	sp,sp,136
 10034ac:	f800283a 	ret
 10034b0:	d8c02317 	ldw	r3,140(sp)
 10034b4:	0089c3c4 	movi	r2,9999
 10034b8:	18800015 	stw	r2,0(r3)
 10034bc:	90017726 	beq	r18,zero,1003a9c <_dtoa_r+0x6dc>
 10034c0:	00804074 	movhi	r2,257
 10034c4:	10bf7104 	addi	r2,r2,-572
 10034c8:	d9002517 	ldw	r4,148(sp)
 10034cc:	203fec26 	beq	r4,zero,1003480 <_dtoa_r+0xc0>
 10034d0:	10c000c7 	ldb	r3,3(r2)
 10034d4:	1801781e 	bne	r3,zero,1003ab8 <_dtoa_r+0x6f8>
 10034d8:	10c000c4 	addi	r3,r2,3
 10034dc:	d9802517 	ldw	r6,148(sp)
 10034e0:	30c00015 	stw	r3,0(r6)
 10034e4:	003fe606 	br	1003480 <_dtoa_r+0xc0>
 10034e8:	04e00034 	movhi	r19,32768
 10034ec:	9cffffc4 	addi	r19,r19,-1
 10034f0:	00800044 	movi	r2,1
 10034f4:	8ce6703a 	and	r19,r17,r19
 10034f8:	80800015 	stw	r2,0(r16)
 10034fc:	9823883a 	mov	r17,r19
 1003500:	003fcc06 	br	1003434 <_dtoa_r+0x74>
 1003504:	d8800204 	addi	r2,sp,8
 1003508:	d8800015 	stw	r2,0(sp)
 100350c:	d9c00104 	addi	r7,sp,4
 1003510:	900b883a 	mov	r5,r18
 1003514:	980d883a 	mov	r6,r19
 1003518:	e009883a 	mov	r4,fp
 100351c:	8820d53a 	srli	r16,r17,20
 1003520:	10076f00 	call	10076f0 <__d2b>
 1003524:	d8800915 	stw	r2,36(sp)
 1003528:	8001651e 	bne	r16,zero,1003ac0 <_dtoa_r+0x700>
 100352c:	dd800217 	ldw	r22,8(sp)
 1003530:	dc000117 	ldw	r16,4(sp)
 1003534:	00800804 	movi	r2,32
 1003538:	b421883a 	add	r16,r22,r16
 100353c:	80c10c84 	addi	r3,r16,1074
 1003540:	10c2d10e 	bge	r2,r3,1004088 <_dtoa_r+0xcc8>
 1003544:	00801004 	movi	r2,64
 1003548:	81010484 	addi	r4,r16,1042
 100354c:	10c7c83a 	sub	r3,r2,r3
 1003550:	9108d83a 	srl	r4,r18,r4
 1003554:	88e2983a 	sll	r17,r17,r3
 1003558:	2448b03a 	or	r4,r4,r17
 100355c:	100d3d80 	call	100d3d8 <__floatunsidf>
 1003560:	017f8434 	movhi	r5,65040
 1003564:	01800044 	movi	r6,1
 1003568:	1009883a 	mov	r4,r2
 100356c:	194b883a 	add	r5,r3,r5
 1003570:	843fffc4 	addi	r16,r16,-1
 1003574:	d9801115 	stw	r6,68(sp)
 1003578:	000d883a 	mov	r6,zero
 100357c:	01cffe34 	movhi	r7,16376
 1003580:	100c9800 	call	100c980 <__subdf3>
 1003584:	0198dbf4 	movhi	r6,25455
 1003588:	01cff4f4 	movhi	r7,16339
 100358c:	3190d844 	addi	r6,r6,17249
 1003590:	39e1e9c4 	addi	r7,r7,-30809
 1003594:	1009883a 	mov	r4,r2
 1003598:	180b883a 	mov	r5,r3
 100359c:	100c2680 	call	100c268 <__muldf3>
 10035a0:	01a2d874 	movhi	r6,35681
 10035a4:	01cff1f4 	movhi	r7,16327
 10035a8:	31b22cc4 	addi	r6,r6,-14157
 10035ac:	39e28a04 	addi	r7,r7,-30168
 10035b0:	180b883a 	mov	r5,r3
 10035b4:	1009883a 	mov	r4,r2
 10035b8:	100ae7c0 	call	100ae7c <__adddf3>
 10035bc:	8009883a 	mov	r4,r16
 10035c0:	1029883a 	mov	r20,r2
 10035c4:	1823883a 	mov	r17,r3
 10035c8:	100d2fc0 	call	100d2fc <__floatsidf>
 10035cc:	019427f4 	movhi	r6,20639
 10035d0:	01cff4f4 	movhi	r7,16339
 10035d4:	319e7ec4 	addi	r6,r6,31227
 10035d8:	39d104c4 	addi	r7,r7,17427
 10035dc:	1009883a 	mov	r4,r2
 10035e0:	180b883a 	mov	r5,r3
 10035e4:	100c2680 	call	100c268 <__muldf3>
 10035e8:	100d883a 	mov	r6,r2
 10035ec:	180f883a 	mov	r7,r3
 10035f0:	a009883a 	mov	r4,r20
 10035f4:	880b883a 	mov	r5,r17
 10035f8:	100ae7c0 	call	100ae7c <__adddf3>
 10035fc:	1009883a 	mov	r4,r2
 1003600:	180b883a 	mov	r5,r3
 1003604:	1029883a 	mov	r20,r2
 1003608:	1823883a 	mov	r17,r3
 100360c:	100d27c0 	call	100d27c <__fixdfsi>
 1003610:	000d883a 	mov	r6,zero
 1003614:	000f883a 	mov	r7,zero
 1003618:	a009883a 	mov	r4,r20
 100361c:	880b883a 	mov	r5,r17
 1003620:	d8800515 	stw	r2,20(sp)
 1003624:	100c1740 	call	100c174 <__ledf2>
 1003628:	10028716 	blt	r2,zero,1004048 <_dtoa_r+0xc88>
 100362c:	d8c00517 	ldw	r3,20(sp)
 1003630:	00800584 	movi	r2,22
 1003634:	10c27536 	bltu	r2,r3,100400c <_dtoa_r+0xc4c>
 1003638:	180490fa 	slli	r2,r3,3
 100363c:	00c04074 	movhi	r3,257
 1003640:	18ff8d04 	addi	r3,r3,-460
 1003644:	1885883a 	add	r2,r3,r2
 1003648:	11000017 	ldw	r4,0(r2)
 100364c:	11400117 	ldw	r5,4(r2)
 1003650:	900d883a 	mov	r6,r18
 1003654:	980f883a 	mov	r7,r19
 1003658:	100c0980 	call	100c098 <__gedf2>
 100365c:	00828d0e 	bge	zero,r2,1004094 <_dtoa_r+0xcd4>
 1003660:	d9000517 	ldw	r4,20(sp)
 1003664:	d8000e15 	stw	zero,56(sp)
 1003668:	213fffc4 	addi	r4,r4,-1
 100366c:	d9000515 	stw	r4,20(sp)
 1003670:	b42dc83a 	sub	r22,r22,r16
 1003674:	b5bfffc4 	addi	r22,r22,-1
 1003678:	b0026f16 	blt	r22,zero,1004038 <_dtoa_r+0xc78>
 100367c:	d8000815 	stw	zero,32(sp)
 1003680:	d9c00517 	ldw	r7,20(sp)
 1003684:	38026416 	blt	r7,zero,1004018 <_dtoa_r+0xc58>
 1003688:	b1ed883a 	add	r22,r22,r7
 100368c:	d9c00d15 	stw	r7,52(sp)
 1003690:	d8000a15 	stw	zero,40(sp)
 1003694:	d9800317 	ldw	r6,12(sp)
 1003698:	00800244 	movi	r2,9
 100369c:	11811436 	bltu	r2,r6,1003af0 <_dtoa_r+0x730>
 10036a0:	00800144 	movi	r2,5
 10036a4:	1184e10e 	bge	r2,r6,1004a2c <_dtoa_r+0x166c>
 10036a8:	31bfff04 	addi	r6,r6,-4
 10036ac:	d9800315 	stw	r6,12(sp)
 10036b0:	0023883a 	mov	r17,zero
 10036b4:	d9800317 	ldw	r6,12(sp)
 10036b8:	008000c4 	movi	r2,3
 10036bc:	30836726 	beq	r6,r2,100445c <_dtoa_r+0x109c>
 10036c0:	1183410e 	bge	r2,r6,10043c8 <_dtoa_r+0x1008>
 10036c4:	d9c00317 	ldw	r7,12(sp)
 10036c8:	00800104 	movi	r2,4
 10036cc:	38827c26 	beq	r7,r2,10040c0 <_dtoa_r+0xd00>
 10036d0:	00800144 	movi	r2,5
 10036d4:	3884c41e 	bne	r7,r2,10049e8 <_dtoa_r+0x1628>
 10036d8:	00800044 	movi	r2,1
 10036dc:	d8800b15 	stw	r2,44(sp)
 10036e0:	d8c00517 	ldw	r3,20(sp)
 10036e4:	d9002217 	ldw	r4,136(sp)
 10036e8:	1907883a 	add	r3,r3,r4
 10036ec:	19800044 	addi	r6,r3,1
 10036f0:	d8c00c15 	stw	r3,48(sp)
 10036f4:	d9800615 	stw	r6,24(sp)
 10036f8:	0183a40e 	bge	zero,r6,100458c <_dtoa_r+0x11cc>
 10036fc:	d9800617 	ldw	r6,24(sp)
 1003700:	3021883a 	mov	r16,r6
 1003704:	e0001115 	stw	zero,68(fp)
 1003708:	008005c4 	movi	r2,23
 100370c:	1184c92e 	bgeu	r2,r6,1004a34 <_dtoa_r+0x1674>
 1003710:	00c00044 	movi	r3,1
 1003714:	00800104 	movi	r2,4
 1003718:	1085883a 	add	r2,r2,r2
 100371c:	11000504 	addi	r4,r2,20
 1003720:	180b883a 	mov	r5,r3
 1003724:	18c00044 	addi	r3,r3,1
 1003728:	313ffb2e 	bgeu	r6,r4,1003718 <_dtoa_r+0x358>
 100372c:	e1401115 	stw	r5,68(fp)
 1003730:	e009883a 	mov	r4,fp
 1003734:	1006a5c0 	call	1006a5c <_Balloc>
 1003738:	d8800715 	stw	r2,28(sp)
 100373c:	e0801015 	stw	r2,64(fp)
 1003740:	00800384 	movi	r2,14
 1003744:	1400f736 	bltu	r2,r16,1003b24 <_dtoa_r+0x764>
 1003748:	8800f626 	beq	r17,zero,1003b24 <_dtoa_r+0x764>
 100374c:	d9c00517 	ldw	r7,20(sp)
 1003750:	01c39a0e 	bge	zero,r7,10045bc <_dtoa_r+0x11fc>
 1003754:	388003cc 	andi	r2,r7,15
 1003758:	100490fa 	slli	r2,r2,3
 100375c:	382bd13a 	srai	r21,r7,4
 1003760:	00c04074 	movhi	r3,257
 1003764:	18ff8d04 	addi	r3,r3,-460
 1003768:	1885883a 	add	r2,r3,r2
 100376c:	a8c0040c 	andi	r3,r21,16
 1003770:	12400017 	ldw	r9,0(r2)
 1003774:	12000117 	ldw	r8,4(r2)
 1003778:	18037926 	beq	r3,zero,1004560 <_dtoa_r+0x11a0>
 100377c:	00804074 	movhi	r2,257
 1003780:	10bf8304 	addi	r2,r2,-500
 1003784:	11800817 	ldw	r6,32(r2)
 1003788:	11c00917 	ldw	r7,36(r2)
 100378c:	9009883a 	mov	r4,r18
 1003790:	980b883a 	mov	r5,r19
 1003794:	da001715 	stw	r8,92(sp)
 1003798:	da401615 	stw	r9,88(sp)
 100379c:	100b7280 	call	100b728 <__divdf3>
 10037a0:	da001717 	ldw	r8,92(sp)
 10037a4:	da401617 	ldw	r9,88(sp)
 10037a8:	ad4003cc 	andi	r21,r21,15
 10037ac:	040000c4 	movi	r16,3
 10037b0:	1023883a 	mov	r17,r2
 10037b4:	1829883a 	mov	r20,r3
 10037b8:	a8001126 	beq	r21,zero,1003800 <_dtoa_r+0x440>
 10037bc:	05c04074 	movhi	r23,257
 10037c0:	bdff8304 	addi	r23,r23,-500
 10037c4:	4805883a 	mov	r2,r9
 10037c8:	4007883a 	mov	r3,r8
 10037cc:	a980004c 	andi	r6,r21,1
 10037d0:	1009883a 	mov	r4,r2
 10037d4:	a82bd07a 	srai	r21,r21,1
 10037d8:	180b883a 	mov	r5,r3
 10037dc:	30000426 	beq	r6,zero,10037f0 <_dtoa_r+0x430>
 10037e0:	b9800017 	ldw	r6,0(r23)
 10037e4:	b9c00117 	ldw	r7,4(r23)
 10037e8:	84000044 	addi	r16,r16,1
 10037ec:	100c2680 	call	100c268 <__muldf3>
 10037f0:	bdc00204 	addi	r23,r23,8
 10037f4:	a83ff51e 	bne	r21,zero,10037cc <_dtoa_r+0x40c>
 10037f8:	1013883a 	mov	r9,r2
 10037fc:	1811883a 	mov	r8,r3
 1003800:	480d883a 	mov	r6,r9
 1003804:	400f883a 	mov	r7,r8
 1003808:	8809883a 	mov	r4,r17
 100380c:	a00b883a 	mov	r5,r20
 1003810:	100b7280 	call	100b728 <__divdf3>
 1003814:	d8800f15 	stw	r2,60(sp)
 1003818:	d8c01015 	stw	r3,64(sp)
 100381c:	d8c00e17 	ldw	r3,56(sp)
 1003820:	18000626 	beq	r3,zero,100383c <_dtoa_r+0x47c>
 1003824:	d9000f17 	ldw	r4,60(sp)
 1003828:	d9401017 	ldw	r5,64(sp)
 100382c:	000d883a 	mov	r6,zero
 1003830:	01cffc34 	movhi	r7,16368
 1003834:	100c1740 	call	100c174 <__ledf2>
 1003838:	10040b16 	blt	r2,zero,1004868 <_dtoa_r+0x14a8>
 100383c:	8009883a 	mov	r4,r16
 1003840:	100d2fc0 	call	100d2fc <__floatsidf>
 1003844:	d9800f17 	ldw	r6,60(sp)
 1003848:	d9c01017 	ldw	r7,64(sp)
 100384c:	1009883a 	mov	r4,r2
 1003850:	180b883a 	mov	r5,r3
 1003854:	100c2680 	call	100c268 <__muldf3>
 1003858:	000d883a 	mov	r6,zero
 100385c:	01d00734 	movhi	r7,16412
 1003860:	1009883a 	mov	r4,r2
 1003864:	180b883a 	mov	r5,r3
 1003868:	100ae7c0 	call	100ae7c <__adddf3>
 100386c:	1021883a 	mov	r16,r2
 1003870:	d8800617 	ldw	r2,24(sp)
 1003874:	047f3034 	movhi	r17,64704
 1003878:	1c63883a 	add	r17,r3,r17
 100387c:	10031826 	beq	r2,zero,10044e0 <_dtoa_r+0x1120>
 1003880:	d8c00517 	ldw	r3,20(sp)
 1003884:	db000617 	ldw	r12,24(sp)
 1003888:	d8c01315 	stw	r3,76(sp)
 100388c:	d9000b17 	ldw	r4,44(sp)
 1003890:	20038f26 	beq	r4,zero,10046d0 <_dtoa_r+0x1310>
 1003894:	60bfffc4 	addi	r2,r12,-1
 1003898:	100490fa 	slli	r2,r2,3
 100389c:	00c04074 	movhi	r3,257
 10038a0:	18ff8d04 	addi	r3,r3,-460
 10038a4:	1885883a 	add	r2,r3,r2
 10038a8:	11800017 	ldw	r6,0(r2)
 10038ac:	11c00117 	ldw	r7,4(r2)
 10038b0:	d8800717 	ldw	r2,28(sp)
 10038b4:	0009883a 	mov	r4,zero
 10038b8:	014ff834 	movhi	r5,16352
 10038bc:	db001615 	stw	r12,88(sp)
 10038c0:	15c00044 	addi	r23,r2,1
 10038c4:	100b7280 	call	100b728 <__divdf3>
 10038c8:	800d883a 	mov	r6,r16
 10038cc:	880f883a 	mov	r7,r17
 10038d0:	1009883a 	mov	r4,r2
 10038d4:	180b883a 	mov	r5,r3
 10038d8:	100c9800 	call	100c980 <__subdf3>
 10038dc:	d9401017 	ldw	r5,64(sp)
 10038e0:	d9000f17 	ldw	r4,60(sp)
 10038e4:	102b883a 	mov	r21,r2
 10038e8:	d8c01215 	stw	r3,72(sp)
 10038ec:	100d27c0 	call	100d27c <__fixdfsi>
 10038f0:	1009883a 	mov	r4,r2
 10038f4:	1029883a 	mov	r20,r2
 10038f8:	100d2fc0 	call	100d2fc <__floatsidf>
 10038fc:	d9000f17 	ldw	r4,60(sp)
 1003900:	d9401017 	ldw	r5,64(sp)
 1003904:	100d883a 	mov	r6,r2
 1003908:	180f883a 	mov	r7,r3
 100390c:	100c9800 	call	100c980 <__subdf3>
 1003910:	1823883a 	mov	r17,r3
 1003914:	d8c00717 	ldw	r3,28(sp)
 1003918:	d9401217 	ldw	r5,72(sp)
 100391c:	a2000c04 	addi	r8,r20,48
 1003920:	1021883a 	mov	r16,r2
 1003924:	1a000005 	stb	r8,0(r3)
 1003928:	800d883a 	mov	r6,r16
 100392c:	880f883a 	mov	r7,r17
 1003930:	a809883a 	mov	r4,r21
 1003934:	4029883a 	mov	r20,r8
 1003938:	100c0980 	call	100c098 <__gedf2>
 100393c:	00841d16 	blt	zero,r2,10049b4 <_dtoa_r+0x15f4>
 1003940:	800d883a 	mov	r6,r16
 1003944:	880f883a 	mov	r7,r17
 1003948:	0009883a 	mov	r4,zero
 100394c:	014ffc34 	movhi	r5,16368
 1003950:	100c9800 	call	100c980 <__subdf3>
 1003954:	d9401217 	ldw	r5,72(sp)
 1003958:	100d883a 	mov	r6,r2
 100395c:	180f883a 	mov	r7,r3
 1003960:	a809883a 	mov	r4,r21
 1003964:	100c0980 	call	100c098 <__gedf2>
 1003968:	db001617 	ldw	r12,88(sp)
 100396c:	00840e16 	blt	zero,r2,10049a8 <_dtoa_r+0x15e8>
 1003970:	00800044 	movi	r2,1
 1003974:	13006b0e 	bge	r2,r12,1003b24 <_dtoa_r+0x764>
 1003978:	d9000717 	ldw	r4,28(sp)
 100397c:	dd800f15 	stw	r22,60(sp)
 1003980:	dcc01015 	stw	r19,64(sp)
 1003984:	2319883a 	add	r12,r4,r12
 1003988:	dcc01217 	ldw	r19,72(sp)
 100398c:	602d883a 	mov	r22,r12
 1003990:	dc801215 	stw	r18,72(sp)
 1003994:	b825883a 	mov	r18,r23
 1003998:	00000906 	br	10039c0 <_dtoa_r+0x600>
 100399c:	100c9800 	call	100c980 <__subdf3>
 10039a0:	a80d883a 	mov	r6,r21
 10039a4:	980f883a 	mov	r7,r19
 10039a8:	1009883a 	mov	r4,r2
 10039ac:	180b883a 	mov	r5,r3
 10039b0:	100c1740 	call	100c174 <__ledf2>
 10039b4:	1003e816 	blt	r2,zero,1004958 <_dtoa_r+0x1598>
 10039b8:	b825883a 	mov	r18,r23
 10039bc:	bd83e926 	beq	r23,r22,1004964 <_dtoa_r+0x15a4>
 10039c0:	a809883a 	mov	r4,r21
 10039c4:	980b883a 	mov	r5,r19
 10039c8:	000d883a 	mov	r6,zero
 10039cc:	01d00934 	movhi	r7,16420
 10039d0:	100c2680 	call	100c268 <__muldf3>
 10039d4:	000d883a 	mov	r6,zero
 10039d8:	01d00934 	movhi	r7,16420
 10039dc:	8009883a 	mov	r4,r16
 10039e0:	880b883a 	mov	r5,r17
 10039e4:	102b883a 	mov	r21,r2
 10039e8:	1827883a 	mov	r19,r3
 10039ec:	100c2680 	call	100c268 <__muldf3>
 10039f0:	180b883a 	mov	r5,r3
 10039f4:	1009883a 	mov	r4,r2
 10039f8:	1821883a 	mov	r16,r3
 10039fc:	1023883a 	mov	r17,r2
 1003a00:	100d27c0 	call	100d27c <__fixdfsi>
 1003a04:	1009883a 	mov	r4,r2
 1003a08:	1029883a 	mov	r20,r2
 1003a0c:	100d2fc0 	call	100d2fc <__floatsidf>
 1003a10:	8809883a 	mov	r4,r17
 1003a14:	800b883a 	mov	r5,r16
 1003a18:	100d883a 	mov	r6,r2
 1003a1c:	180f883a 	mov	r7,r3
 1003a20:	100c9800 	call	100c980 <__subdf3>
 1003a24:	a5000c04 	addi	r20,r20,48
 1003a28:	a80d883a 	mov	r6,r21
 1003a2c:	980f883a 	mov	r7,r19
 1003a30:	1009883a 	mov	r4,r2
 1003a34:	180b883a 	mov	r5,r3
 1003a38:	95000005 	stb	r20,0(r18)
 1003a3c:	1021883a 	mov	r16,r2
 1003a40:	1823883a 	mov	r17,r3
 1003a44:	100c1740 	call	100c174 <__ledf2>
 1003a48:	bdc00044 	addi	r23,r23,1
 1003a4c:	800d883a 	mov	r6,r16
 1003a50:	880f883a 	mov	r7,r17
 1003a54:	0009883a 	mov	r4,zero
 1003a58:	014ffc34 	movhi	r5,16368
 1003a5c:	103fcf0e 	bge	r2,zero,100399c <_dtoa_r+0x5dc>
 1003a60:	d8c01317 	ldw	r3,76(sp)
 1003a64:	d8c00515 	stw	r3,20(sp)
 1003a68:	d9400917 	ldw	r5,36(sp)
 1003a6c:	e009883a 	mov	r4,fp
 1003a70:	1006b040 	call	1006b04 <_Bfree>
 1003a74:	d9000517 	ldw	r4,20(sp)
 1003a78:	d9802317 	ldw	r6,140(sp)
 1003a7c:	d9c02517 	ldw	r7,148(sp)
 1003a80:	b8000005 	stb	zero,0(r23)
 1003a84:	20800044 	addi	r2,r4,1
 1003a88:	30800015 	stw	r2,0(r6)
 1003a8c:	3802aa26 	beq	r7,zero,1004538 <_dtoa_r+0x1178>
 1003a90:	3dc00015 	stw	r23,0(r7)
 1003a94:	d8800717 	ldw	r2,28(sp)
 1003a98:	003e7906 	br	1003480 <_dtoa_r+0xc0>
 1003a9c:	00800434 	movhi	r2,16
 1003aa0:	10bfffc4 	addi	r2,r2,-1
 1003aa4:	88a2703a 	and	r17,r17,r2
 1003aa8:	883e851e 	bne	r17,zero,10034c0 <_dtoa_r+0x100>
 1003aac:	00804074 	movhi	r2,257
 1003ab0:	10bf6e04 	addi	r2,r2,-584
 1003ab4:	003e8406 	br	10034c8 <_dtoa_r+0x108>
 1003ab8:	10c00204 	addi	r3,r2,8
 1003abc:	003e8706 	br	10034dc <_dtoa_r+0x11c>
 1003ac0:	01400434 	movhi	r5,16
 1003ac4:	297fffc4 	addi	r5,r5,-1
 1003ac8:	994a703a 	and	r5,r19,r5
 1003acc:	9009883a 	mov	r4,r18
 1003ad0:	843f0044 	addi	r16,r16,-1023
 1003ad4:	294ffc34 	orhi	r5,r5,16368
 1003ad8:	dd800217 	ldw	r22,8(sp)
 1003adc:	d8001115 	stw	zero,68(sp)
 1003ae0:	003ea506 	br	1003578 <_dtoa_r+0x1b8>
 1003ae4:	00804074 	movhi	r2,257
 1003ae8:	10bf6504 	addi	r2,r2,-620
 1003aec:	003e6406 	br	1003480 <_dtoa_r+0xc0>
 1003af0:	e0001115 	stw	zero,68(fp)
 1003af4:	000b883a 	mov	r5,zero
 1003af8:	e009883a 	mov	r4,fp
 1003afc:	1006a5c0 	call	1006a5c <_Balloc>
 1003b00:	01bfffc4 	movi	r6,-1
 1003b04:	01c00044 	movi	r7,1
 1003b08:	d8800715 	stw	r2,28(sp)
 1003b0c:	d9800c15 	stw	r6,48(sp)
 1003b10:	e0801015 	stw	r2,64(fp)
 1003b14:	d8000315 	stw	zero,12(sp)
 1003b18:	d9c00b15 	stw	r7,44(sp)
 1003b1c:	d9800615 	stw	r6,24(sp)
 1003b20:	d8002215 	stw	zero,136(sp)
 1003b24:	d8800117 	ldw	r2,4(sp)
 1003b28:	10008916 	blt	r2,zero,1003d50 <_dtoa_r+0x990>
 1003b2c:	d9000517 	ldw	r4,20(sp)
 1003b30:	00c00384 	movi	r3,14
 1003b34:	19008616 	blt	r3,r4,1003d50 <_dtoa_r+0x990>
 1003b38:	200490fa 	slli	r2,r4,3
 1003b3c:	00c04074 	movhi	r3,257
 1003b40:	d9802217 	ldw	r6,136(sp)
 1003b44:	18ff8d04 	addi	r3,r3,-460
 1003b48:	1885883a 	add	r2,r3,r2
 1003b4c:	14000017 	ldw	r16,0(r2)
 1003b50:	14400117 	ldw	r17,4(r2)
 1003b54:	30016316 	blt	r6,zero,10040e4 <_dtoa_r+0xd24>
 1003b58:	800d883a 	mov	r6,r16
 1003b5c:	880f883a 	mov	r7,r17
 1003b60:	9009883a 	mov	r4,r18
 1003b64:	980b883a 	mov	r5,r19
 1003b68:	100b7280 	call	100b728 <__divdf3>
 1003b6c:	180b883a 	mov	r5,r3
 1003b70:	1009883a 	mov	r4,r2
 1003b74:	100d27c0 	call	100d27c <__fixdfsi>
 1003b78:	1009883a 	mov	r4,r2
 1003b7c:	102b883a 	mov	r21,r2
 1003b80:	100d2fc0 	call	100d2fc <__floatsidf>
 1003b84:	800d883a 	mov	r6,r16
 1003b88:	880f883a 	mov	r7,r17
 1003b8c:	1009883a 	mov	r4,r2
 1003b90:	180b883a 	mov	r5,r3
 1003b94:	100c2680 	call	100c268 <__muldf3>
 1003b98:	100d883a 	mov	r6,r2
 1003b9c:	180f883a 	mov	r7,r3
 1003ba0:	9009883a 	mov	r4,r18
 1003ba4:	980b883a 	mov	r5,r19
 1003ba8:	100c9800 	call	100c980 <__subdf3>
 1003bac:	d9c00717 	ldw	r7,28(sp)
 1003bb0:	1009883a 	mov	r4,r2
 1003bb4:	a8800c04 	addi	r2,r21,48
 1003bb8:	38800005 	stb	r2,0(r7)
 1003bbc:	3dc00044 	addi	r23,r7,1
 1003bc0:	d9c00617 	ldw	r7,24(sp)
 1003bc4:	01800044 	movi	r6,1
 1003bc8:	180b883a 	mov	r5,r3
 1003bcc:	2005883a 	mov	r2,r4
 1003bd0:	39803826 	beq	r7,r6,1003cb4 <_dtoa_r+0x8f4>
 1003bd4:	000d883a 	mov	r6,zero
 1003bd8:	01d00934 	movhi	r7,16420
 1003bdc:	100c2680 	call	100c268 <__muldf3>
 1003be0:	000d883a 	mov	r6,zero
 1003be4:	000f883a 	mov	r7,zero
 1003be8:	1009883a 	mov	r4,r2
 1003bec:	180b883a 	mov	r5,r3
 1003bf0:	1025883a 	mov	r18,r2
 1003bf4:	1827883a 	mov	r19,r3
 1003bf8:	100c0100 	call	100c010 <__eqdf2>
 1003bfc:	103f9a26 	beq	r2,zero,1003a68 <_dtoa_r+0x6a8>
 1003c00:	d9c00617 	ldw	r7,24(sp)
 1003c04:	d8c00717 	ldw	r3,28(sp)
 1003c08:	b829883a 	mov	r20,r23
 1003c0c:	38bfffc4 	addi	r2,r7,-1
 1003c10:	18ad883a 	add	r22,r3,r2
 1003c14:	00000a06 	br	1003c40 <_dtoa_r+0x880>
 1003c18:	100c2680 	call	100c268 <__muldf3>
 1003c1c:	000d883a 	mov	r6,zero
 1003c20:	000f883a 	mov	r7,zero
 1003c24:	1009883a 	mov	r4,r2
 1003c28:	180b883a 	mov	r5,r3
 1003c2c:	1025883a 	mov	r18,r2
 1003c30:	1827883a 	mov	r19,r3
 1003c34:	b829883a 	mov	r20,r23
 1003c38:	100c0100 	call	100c010 <__eqdf2>
 1003c3c:	103f8a26 	beq	r2,zero,1003a68 <_dtoa_r+0x6a8>
 1003c40:	800d883a 	mov	r6,r16
 1003c44:	880f883a 	mov	r7,r17
 1003c48:	9009883a 	mov	r4,r18
 1003c4c:	980b883a 	mov	r5,r19
 1003c50:	100b7280 	call	100b728 <__divdf3>
 1003c54:	180b883a 	mov	r5,r3
 1003c58:	1009883a 	mov	r4,r2
 1003c5c:	100d27c0 	call	100d27c <__fixdfsi>
 1003c60:	1009883a 	mov	r4,r2
 1003c64:	102b883a 	mov	r21,r2
 1003c68:	100d2fc0 	call	100d2fc <__floatsidf>
 1003c6c:	800d883a 	mov	r6,r16
 1003c70:	880f883a 	mov	r7,r17
 1003c74:	1009883a 	mov	r4,r2
 1003c78:	180b883a 	mov	r5,r3
 1003c7c:	100c2680 	call	100c268 <__muldf3>
 1003c80:	100d883a 	mov	r6,r2
 1003c84:	180f883a 	mov	r7,r3
 1003c88:	9009883a 	mov	r4,r18
 1003c8c:	980b883a 	mov	r5,r19
 1003c90:	100c9800 	call	100c980 <__subdf3>
 1003c94:	aa000c04 	addi	r8,r21,48
 1003c98:	a2000005 	stb	r8,0(r20)
 1003c9c:	000d883a 	mov	r6,zero
 1003ca0:	01d00934 	movhi	r7,16420
 1003ca4:	1009883a 	mov	r4,r2
 1003ca8:	180b883a 	mov	r5,r3
 1003cac:	a5c00044 	addi	r23,r20,1
 1003cb0:	b53fd91e 	bne	r22,r20,1003c18 <_dtoa_r+0x858>
 1003cb4:	100d883a 	mov	r6,r2
 1003cb8:	180f883a 	mov	r7,r3
 1003cbc:	1009883a 	mov	r4,r2
 1003cc0:	180b883a 	mov	r5,r3
 1003cc4:	100ae7c0 	call	100ae7c <__adddf3>
 1003cc8:	100d883a 	mov	r6,r2
 1003ccc:	180f883a 	mov	r7,r3
 1003cd0:	8009883a 	mov	r4,r16
 1003cd4:	880b883a 	mov	r5,r17
 1003cd8:	1027883a 	mov	r19,r2
 1003cdc:	1825883a 	mov	r18,r3
 1003ce0:	100c1740 	call	100c174 <__ledf2>
 1003ce4:	10000816 	blt	r2,zero,1003d08 <_dtoa_r+0x948>
 1003ce8:	980d883a 	mov	r6,r19
 1003cec:	900f883a 	mov	r7,r18
 1003cf0:	8009883a 	mov	r4,r16
 1003cf4:	880b883a 	mov	r5,r17
 1003cf8:	100c0100 	call	100c010 <__eqdf2>
 1003cfc:	103f5a1e 	bne	r2,zero,1003a68 <_dtoa_r+0x6a8>
 1003d00:	ad40004c 	andi	r21,r21,1
 1003d04:	a83f5826 	beq	r21,zero,1003a68 <_dtoa_r+0x6a8>
 1003d08:	bd3fffc3 	ldbu	r20,-1(r23)
 1003d0c:	b8bfffc4 	addi	r2,r23,-1
 1003d10:	1007883a 	mov	r3,r2
 1003d14:	01400e44 	movi	r5,57
 1003d18:	d9800717 	ldw	r6,28(sp)
 1003d1c:	00000506 	br	1003d34 <_dtoa_r+0x974>
 1003d20:	18ffffc4 	addi	r3,r3,-1
 1003d24:	11824726 	beq	r2,r6,1004644 <_dtoa_r+0x1284>
 1003d28:	1d000003 	ldbu	r20,0(r3)
 1003d2c:	102f883a 	mov	r23,r2
 1003d30:	10bfffc4 	addi	r2,r2,-1
 1003d34:	a1003fcc 	andi	r4,r20,255
 1003d38:	2100201c 	xori	r4,r4,128
 1003d3c:	213fe004 	addi	r4,r4,-128
 1003d40:	217ff726 	beq	r4,r5,1003d20 <_dtoa_r+0x960>
 1003d44:	a2000044 	addi	r8,r20,1
 1003d48:	12000005 	stb	r8,0(r2)
 1003d4c:	003f4606 	br	1003a68 <_dtoa_r+0x6a8>
 1003d50:	d9000b17 	ldw	r4,44(sp)
 1003d54:	2000c826 	beq	r4,zero,1004078 <_dtoa_r+0xcb8>
 1003d58:	d9800317 	ldw	r6,12(sp)
 1003d5c:	00c00044 	movi	r3,1
 1003d60:	1980f90e 	bge	r3,r6,1004148 <_dtoa_r+0xd88>
 1003d64:	d8800617 	ldw	r2,24(sp)
 1003d68:	d8c00a17 	ldw	r3,40(sp)
 1003d6c:	157fffc4 	addi	r21,r2,-1
 1003d70:	1d41f316 	blt	r3,r21,1004540 <_dtoa_r+0x1180>
 1003d74:	1d6bc83a 	sub	r21,r3,r21
 1003d78:	d9c00617 	ldw	r7,24(sp)
 1003d7c:	3802aa16 	blt	r7,zero,1004828 <_dtoa_r+0x1468>
 1003d80:	dd000817 	ldw	r20,32(sp)
 1003d84:	d8800617 	ldw	r2,24(sp)
 1003d88:	d8c00817 	ldw	r3,32(sp)
 1003d8c:	01400044 	movi	r5,1
 1003d90:	e009883a 	mov	r4,fp
 1003d94:	1887883a 	add	r3,r3,r2
 1003d98:	d8c00815 	stw	r3,32(sp)
 1003d9c:	b0ad883a 	add	r22,r22,r2
 1003da0:	1006e680 	call	1006e68 <__i2b>
 1003da4:	1023883a 	mov	r17,r2
 1003da8:	a0000826 	beq	r20,zero,1003dcc <_dtoa_r+0xa0c>
 1003dac:	0580070e 	bge	zero,r22,1003dcc <_dtoa_r+0xa0c>
 1003db0:	a005883a 	mov	r2,r20
 1003db4:	b500b916 	blt	r22,r20,100409c <_dtoa_r+0xcdc>
 1003db8:	d9000817 	ldw	r4,32(sp)
 1003dbc:	a0a9c83a 	sub	r20,r20,r2
 1003dc0:	b0adc83a 	sub	r22,r22,r2
 1003dc4:	2089c83a 	sub	r4,r4,r2
 1003dc8:	d9000815 	stw	r4,32(sp)
 1003dcc:	d9800a17 	ldw	r6,40(sp)
 1003dd0:	0181810e 	bge	zero,r6,10043d8 <_dtoa_r+0x1018>
 1003dd4:	d9c00b17 	ldw	r7,44(sp)
 1003dd8:	3800b326 	beq	r7,zero,10040a8 <_dtoa_r+0xce8>
 1003ddc:	a800b226 	beq	r21,zero,10040a8 <_dtoa_r+0xce8>
 1003de0:	880b883a 	mov	r5,r17
 1003de4:	a80d883a 	mov	r6,r21
 1003de8:	e009883a 	mov	r4,fp
 1003dec:	100709c0 	call	100709c <__pow5mult>
 1003df0:	d9800917 	ldw	r6,36(sp)
 1003df4:	100b883a 	mov	r5,r2
 1003df8:	e009883a 	mov	r4,fp
 1003dfc:	1023883a 	mov	r17,r2
 1003e00:	1006ea40 	call	1006ea4 <__multiply>
 1003e04:	1021883a 	mov	r16,r2
 1003e08:	d8800a17 	ldw	r2,40(sp)
 1003e0c:	d9400917 	ldw	r5,36(sp)
 1003e10:	e009883a 	mov	r4,fp
 1003e14:	1545c83a 	sub	r2,r2,r21
 1003e18:	d8800a15 	stw	r2,40(sp)
 1003e1c:	1006b040 	call	1006b04 <_Bfree>
 1003e20:	d8c00a17 	ldw	r3,40(sp)
 1003e24:	18009f1e 	bne	r3,zero,10040a4 <_dtoa_r+0xce4>
 1003e28:	05c00044 	movi	r23,1
 1003e2c:	e009883a 	mov	r4,fp
 1003e30:	b80b883a 	mov	r5,r23
 1003e34:	1006e680 	call	1006e68 <__i2b>
 1003e38:	d9000d17 	ldw	r4,52(sp)
 1003e3c:	102b883a 	mov	r21,r2
 1003e40:	2000ce26 	beq	r4,zero,100417c <_dtoa_r+0xdbc>
 1003e44:	200d883a 	mov	r6,r4
 1003e48:	100b883a 	mov	r5,r2
 1003e4c:	e009883a 	mov	r4,fp
 1003e50:	100709c0 	call	100709c <__pow5mult>
 1003e54:	d9800317 	ldw	r6,12(sp)
 1003e58:	102b883a 	mov	r21,r2
 1003e5c:	b981810e 	bge	r23,r6,1004464 <_dtoa_r+0x10a4>
 1003e60:	0027883a 	mov	r19,zero
 1003e64:	a8800417 	ldw	r2,16(r21)
 1003e68:	05c00804 	movi	r23,32
 1003e6c:	10800104 	addi	r2,r2,4
 1003e70:	1085883a 	add	r2,r2,r2
 1003e74:	1085883a 	add	r2,r2,r2
 1003e78:	a885883a 	add	r2,r21,r2
 1003e7c:	11000017 	ldw	r4,0(r2)
 1003e80:	1006d500 	call	1006d50 <__hi0bits>
 1003e84:	b885c83a 	sub	r2,r23,r2
 1003e88:	1585883a 	add	r2,r2,r22
 1003e8c:	108007cc 	andi	r2,r2,31
 1003e90:	1000b326 	beq	r2,zero,1004160 <_dtoa_r+0xda0>
 1003e94:	00c00804 	movi	r3,32
 1003e98:	1887c83a 	sub	r3,r3,r2
 1003e9c:	01000104 	movi	r4,4
 1003ea0:	20c2cd0e 	bge	r4,r3,10049d8 <_dtoa_r+0x1618>
 1003ea4:	00c00704 	movi	r3,28
 1003ea8:	1885c83a 	sub	r2,r3,r2
 1003eac:	d8c00817 	ldw	r3,32(sp)
 1003eb0:	a0a9883a 	add	r20,r20,r2
 1003eb4:	b0ad883a 	add	r22,r22,r2
 1003eb8:	1887883a 	add	r3,r3,r2
 1003ebc:	d8c00815 	stw	r3,32(sp)
 1003ec0:	d9800817 	ldw	r6,32(sp)
 1003ec4:	0180040e 	bge	zero,r6,1003ed8 <_dtoa_r+0xb18>
 1003ec8:	800b883a 	mov	r5,r16
 1003ecc:	e009883a 	mov	r4,fp
 1003ed0:	10071dc0 	call	10071dc <__lshift>
 1003ed4:	1021883a 	mov	r16,r2
 1003ed8:	0580050e 	bge	zero,r22,1003ef0 <_dtoa_r+0xb30>
 1003edc:	a80b883a 	mov	r5,r21
 1003ee0:	b00d883a 	mov	r6,r22
 1003ee4:	e009883a 	mov	r4,fp
 1003ee8:	10071dc0 	call	10071dc <__lshift>
 1003eec:	102b883a 	mov	r21,r2
 1003ef0:	d9c00e17 	ldw	r7,56(sp)
 1003ef4:	3801211e 	bne	r7,zero,100437c <_dtoa_r+0xfbc>
 1003ef8:	d9800617 	ldw	r6,24(sp)
 1003efc:	0181380e 	bge	zero,r6,10043e0 <_dtoa_r+0x1020>
 1003f00:	d8c00b17 	ldw	r3,44(sp)
 1003f04:	1800ab1e 	bne	r3,zero,10041b4 <_dtoa_r+0xdf4>
 1003f08:	dc800717 	ldw	r18,28(sp)
 1003f0c:	dcc00617 	ldw	r19,24(sp)
 1003f10:	9029883a 	mov	r20,r18
 1003f14:	00000206 	br	1003f20 <_dtoa_r+0xb60>
 1003f18:	1006b2c0 	call	1006b2c <__multadd>
 1003f1c:	1021883a 	mov	r16,r2
 1003f20:	a80b883a 	mov	r5,r21
 1003f24:	8009883a 	mov	r4,r16
 1003f28:	10031c00 	call	10031c0 <quorem>
 1003f2c:	10800c04 	addi	r2,r2,48
 1003f30:	90800005 	stb	r2,0(r18)
 1003f34:	94800044 	addi	r18,r18,1
 1003f38:	9507c83a 	sub	r3,r18,r20
 1003f3c:	000f883a 	mov	r7,zero
 1003f40:	01800284 	movi	r6,10
 1003f44:	800b883a 	mov	r5,r16
 1003f48:	e009883a 	mov	r4,fp
 1003f4c:	1cfff216 	blt	r3,r19,1003f18 <_dtoa_r+0xb58>
 1003f50:	1011883a 	mov	r8,r2
 1003f54:	d8800617 	ldw	r2,24(sp)
 1003f58:	0082370e 	bge	zero,r2,1004838 <_dtoa_r+0x1478>
 1003f5c:	d9000717 	ldw	r4,28(sp)
 1003f60:	0025883a 	mov	r18,zero
 1003f64:	20af883a 	add	r23,r4,r2
 1003f68:	01800044 	movi	r6,1
 1003f6c:	800b883a 	mov	r5,r16
 1003f70:	e009883a 	mov	r4,fp
 1003f74:	da001715 	stw	r8,92(sp)
 1003f78:	10071dc0 	call	10071dc <__lshift>
 1003f7c:	a80b883a 	mov	r5,r21
 1003f80:	1009883a 	mov	r4,r2
 1003f84:	d8800915 	stw	r2,36(sp)
 1003f88:	10073240 	call	1007324 <__mcmp>
 1003f8c:	da001717 	ldw	r8,92(sp)
 1003f90:	0081800e 	bge	zero,r2,1004594 <_dtoa_r+0x11d4>
 1003f94:	b93fffc3 	ldbu	r4,-1(r23)
 1003f98:	b8bfffc4 	addi	r2,r23,-1
 1003f9c:	1007883a 	mov	r3,r2
 1003fa0:	01800e44 	movi	r6,57
 1003fa4:	d9c00717 	ldw	r7,28(sp)
 1003fa8:	00000506 	br	1003fc0 <_dtoa_r+0xc00>
 1003fac:	18ffffc4 	addi	r3,r3,-1
 1003fb0:	11c12326 	beq	r2,r7,1004440 <_dtoa_r+0x1080>
 1003fb4:	19000003 	ldbu	r4,0(r3)
 1003fb8:	102f883a 	mov	r23,r2
 1003fbc:	10bfffc4 	addi	r2,r2,-1
 1003fc0:	21403fcc 	andi	r5,r4,255
 1003fc4:	2940201c 	xori	r5,r5,128
 1003fc8:	297fe004 	addi	r5,r5,-128
 1003fcc:	29bff726 	beq	r5,r6,1003fac <_dtoa_r+0xbec>
 1003fd0:	21000044 	addi	r4,r4,1
 1003fd4:	11000005 	stb	r4,0(r2)
 1003fd8:	a80b883a 	mov	r5,r21
 1003fdc:	e009883a 	mov	r4,fp
 1003fe0:	1006b040 	call	1006b04 <_Bfree>
 1003fe4:	883ea026 	beq	r17,zero,1003a68 <_dtoa_r+0x6a8>
 1003fe8:	90000426 	beq	r18,zero,1003ffc <_dtoa_r+0xc3c>
 1003fec:	94400326 	beq	r18,r17,1003ffc <_dtoa_r+0xc3c>
 1003ff0:	900b883a 	mov	r5,r18
 1003ff4:	e009883a 	mov	r4,fp
 1003ff8:	1006b040 	call	1006b04 <_Bfree>
 1003ffc:	880b883a 	mov	r5,r17
 1004000:	e009883a 	mov	r4,fp
 1004004:	1006b040 	call	1006b04 <_Bfree>
 1004008:	003e9706 	br	1003a68 <_dtoa_r+0x6a8>
 100400c:	01800044 	movi	r6,1
 1004010:	d9800e15 	stw	r6,56(sp)
 1004014:	003d9606 	br	1003670 <_dtoa_r+0x2b0>
 1004018:	d8800817 	ldw	r2,32(sp)
 100401c:	d8c00517 	ldw	r3,20(sp)
 1004020:	d8000d15 	stw	zero,52(sp)
 1004024:	10c5c83a 	sub	r2,r2,r3
 1004028:	00c9c83a 	sub	r4,zero,r3
 100402c:	d8800815 	stw	r2,32(sp)
 1004030:	d9000a15 	stw	r4,40(sp)
 1004034:	003d9706 	br	1003694 <_dtoa_r+0x2d4>
 1004038:	05adc83a 	sub	r22,zero,r22
 100403c:	dd800815 	stw	r22,32(sp)
 1004040:	002d883a 	mov	r22,zero
 1004044:	003d8e06 	br	1003680 <_dtoa_r+0x2c0>
 1004048:	d9000517 	ldw	r4,20(sp)
 100404c:	100d2fc0 	call	100d2fc <__floatsidf>
 1004050:	100d883a 	mov	r6,r2
 1004054:	180f883a 	mov	r7,r3
 1004058:	a009883a 	mov	r4,r20
 100405c:	880b883a 	mov	r5,r17
 1004060:	100c0100 	call	100c010 <__eqdf2>
 1004064:	103d7126 	beq	r2,zero,100362c <_dtoa_r+0x26c>
 1004068:	d9c00517 	ldw	r7,20(sp)
 100406c:	39ffffc4 	addi	r7,r7,-1
 1004070:	d9c00515 	stw	r7,20(sp)
 1004074:	003d6d06 	br	100362c <_dtoa_r+0x26c>
 1004078:	dd400a17 	ldw	r21,40(sp)
 100407c:	dd000817 	ldw	r20,32(sp)
 1004080:	0023883a 	mov	r17,zero
 1004084:	003f4806 	br	1003da8 <_dtoa_r+0x9e8>
 1004088:	10e3c83a 	sub	r17,r2,r3
 100408c:	9448983a 	sll	r4,r18,r17
 1004090:	003d3206 	br	100355c <_dtoa_r+0x19c>
 1004094:	d8000e15 	stw	zero,56(sp)
 1004098:	003d7506 	br	1003670 <_dtoa_r+0x2b0>
 100409c:	b005883a 	mov	r2,r22
 10040a0:	003f4506 	br	1003db8 <_dtoa_r+0x9f8>
 10040a4:	dc000915 	stw	r16,36(sp)
 10040a8:	d9800a17 	ldw	r6,40(sp)
 10040ac:	d9400917 	ldw	r5,36(sp)
 10040b0:	e009883a 	mov	r4,fp
 10040b4:	100709c0 	call	100709c <__pow5mult>
 10040b8:	1021883a 	mov	r16,r2
 10040bc:	003f5a06 	br	1003e28 <_dtoa_r+0xa68>
 10040c0:	01c00044 	movi	r7,1
 10040c4:	d9c00b15 	stw	r7,44(sp)
 10040c8:	d8802217 	ldw	r2,136(sp)
 10040cc:	0081280e 	bge	zero,r2,1004570 <_dtoa_r+0x11b0>
 10040d0:	100d883a 	mov	r6,r2
 10040d4:	1021883a 	mov	r16,r2
 10040d8:	d8800c15 	stw	r2,48(sp)
 10040dc:	d8800615 	stw	r2,24(sp)
 10040e0:	003d8806 	br	1003704 <_dtoa_r+0x344>
 10040e4:	d8800617 	ldw	r2,24(sp)
 10040e8:	00be9b16 	blt	zero,r2,1003b58 <_dtoa_r+0x798>
 10040ec:	10010f1e 	bne	r2,zero,100452c <_dtoa_r+0x116c>
 10040f0:	880b883a 	mov	r5,r17
 10040f4:	000d883a 	mov	r6,zero
 10040f8:	01d00534 	movhi	r7,16404
 10040fc:	8009883a 	mov	r4,r16
 1004100:	100c2680 	call	100c268 <__muldf3>
 1004104:	900d883a 	mov	r6,r18
 1004108:	980f883a 	mov	r7,r19
 100410c:	1009883a 	mov	r4,r2
 1004110:	180b883a 	mov	r5,r3
 1004114:	100c0980 	call	100c098 <__gedf2>
 1004118:	002b883a 	mov	r21,zero
 100411c:	0023883a 	mov	r17,zero
 1004120:	1000bf16 	blt	r2,zero,1004420 <_dtoa_r+0x1060>
 1004124:	d9802217 	ldw	r6,136(sp)
 1004128:	ddc00717 	ldw	r23,28(sp)
 100412c:	018c303a 	nor	r6,zero,r6
 1004130:	d9800515 	stw	r6,20(sp)
 1004134:	a80b883a 	mov	r5,r21
 1004138:	e009883a 	mov	r4,fp
 100413c:	1006b040 	call	1006b04 <_Bfree>
 1004140:	883e4926 	beq	r17,zero,1003a68 <_dtoa_r+0x6a8>
 1004144:	003fad06 	br	1003ffc <_dtoa_r+0xc3c>
 1004148:	d9c01117 	ldw	r7,68(sp)
 100414c:	3801bc26 	beq	r7,zero,1004840 <_dtoa_r+0x1480>
 1004150:	10810cc4 	addi	r2,r2,1075
 1004154:	dd400a17 	ldw	r21,40(sp)
 1004158:	dd000817 	ldw	r20,32(sp)
 100415c:	003f0a06 	br	1003d88 <_dtoa_r+0x9c8>
 1004160:	00800704 	movi	r2,28
 1004164:	d9000817 	ldw	r4,32(sp)
 1004168:	a0a9883a 	add	r20,r20,r2
 100416c:	b0ad883a 	add	r22,r22,r2
 1004170:	2089883a 	add	r4,r4,r2
 1004174:	d9000815 	stw	r4,32(sp)
 1004178:	003f5106 	br	1003ec0 <_dtoa_r+0xb00>
 100417c:	d8c00317 	ldw	r3,12(sp)
 1004180:	b8c1fc0e 	bge	r23,r3,1004974 <_dtoa_r+0x15b4>
 1004184:	0027883a 	mov	r19,zero
 1004188:	b805883a 	mov	r2,r23
 100418c:	003f3e06 	br	1003e88 <_dtoa_r+0xac8>
 1004190:	880b883a 	mov	r5,r17
 1004194:	e009883a 	mov	r4,fp
 1004198:	000f883a 	mov	r7,zero
 100419c:	01800284 	movi	r6,10
 10041a0:	1006b2c0 	call	1006b2c <__multadd>
 10041a4:	d9000c17 	ldw	r4,48(sp)
 10041a8:	1023883a 	mov	r17,r2
 10041ac:	0102040e 	bge	zero,r4,10049c0 <_dtoa_r+0x1600>
 10041b0:	d9000615 	stw	r4,24(sp)
 10041b4:	0500050e 	bge	zero,r20,10041cc <_dtoa_r+0xe0c>
 10041b8:	880b883a 	mov	r5,r17
 10041bc:	a00d883a 	mov	r6,r20
 10041c0:	e009883a 	mov	r4,fp
 10041c4:	10071dc0 	call	10071dc <__lshift>
 10041c8:	1023883a 	mov	r17,r2
 10041cc:	9801241e 	bne	r19,zero,1004660 <_dtoa_r+0x12a0>
 10041d0:	8829883a 	mov	r20,r17
 10041d4:	d9000617 	ldw	r4,24(sp)
 10041d8:	dcc00717 	ldw	r19,28(sp)
 10041dc:	9480004c 	andi	r18,r18,1
 10041e0:	20bfffc4 	addi	r2,r4,-1
 10041e4:	9885883a 	add	r2,r19,r2
 10041e8:	d8800415 	stw	r2,16(sp)
 10041ec:	dc800615 	stw	r18,24(sp)
 10041f0:	a80b883a 	mov	r5,r21
 10041f4:	8009883a 	mov	r4,r16
 10041f8:	10031c00 	call	10031c0 <quorem>
 10041fc:	880b883a 	mov	r5,r17
 1004200:	8009883a 	mov	r4,r16
 1004204:	102f883a 	mov	r23,r2
 1004208:	10073240 	call	1007324 <__mcmp>
 100420c:	a80b883a 	mov	r5,r21
 1004210:	a00d883a 	mov	r6,r20
 1004214:	e009883a 	mov	r4,fp
 1004218:	102d883a 	mov	r22,r2
 100421c:	10073840 	call	1007384 <__mdiff>
 1004220:	1007883a 	mov	r3,r2
 1004224:	10800317 	ldw	r2,12(r2)
 1004228:	bc800c04 	addi	r18,r23,48
 100422c:	180b883a 	mov	r5,r3
 1004230:	10004e1e 	bne	r2,zero,100436c <_dtoa_r+0xfac>
 1004234:	8009883a 	mov	r4,r16
 1004238:	d8c01615 	stw	r3,88(sp)
 100423c:	10073240 	call	1007324 <__mcmp>
 1004240:	d8c01617 	ldw	r3,88(sp)
 1004244:	e009883a 	mov	r4,fp
 1004248:	d8801615 	stw	r2,88(sp)
 100424c:	180b883a 	mov	r5,r3
 1004250:	1006b040 	call	1006b04 <_Bfree>
 1004254:	d8801617 	ldw	r2,88(sp)
 1004258:	1000041e 	bne	r2,zero,100426c <_dtoa_r+0xeac>
 100425c:	d9800317 	ldw	r6,12(sp)
 1004260:	3000021e 	bne	r6,zero,100426c <_dtoa_r+0xeac>
 1004264:	d8c00617 	ldw	r3,24(sp)
 1004268:	18003726 	beq	r3,zero,1004348 <_dtoa_r+0xf88>
 100426c:	b0002016 	blt	r22,zero,10042f0 <_dtoa_r+0xf30>
 1004270:	b000041e 	bne	r22,zero,1004284 <_dtoa_r+0xec4>
 1004274:	d9000317 	ldw	r4,12(sp)
 1004278:	2000021e 	bne	r4,zero,1004284 <_dtoa_r+0xec4>
 100427c:	d8c00617 	ldw	r3,24(sp)
 1004280:	18001b26 	beq	r3,zero,10042f0 <_dtoa_r+0xf30>
 1004284:	00810716 	blt	zero,r2,10046a4 <_dtoa_r+0x12e4>
 1004288:	d8c00417 	ldw	r3,16(sp)
 100428c:	9d800044 	addi	r22,r19,1
 1004290:	9c800005 	stb	r18,0(r19)
 1004294:	b02f883a 	mov	r23,r22
 1004298:	98c10626 	beq	r19,r3,10046b4 <_dtoa_r+0x12f4>
 100429c:	800b883a 	mov	r5,r16
 10042a0:	000f883a 	mov	r7,zero
 10042a4:	01800284 	movi	r6,10
 10042a8:	e009883a 	mov	r4,fp
 10042ac:	1006b2c0 	call	1006b2c <__multadd>
 10042b0:	1021883a 	mov	r16,r2
 10042b4:	000f883a 	mov	r7,zero
 10042b8:	01800284 	movi	r6,10
 10042bc:	880b883a 	mov	r5,r17
 10042c0:	e009883a 	mov	r4,fp
 10042c4:	8d002526 	beq	r17,r20,100435c <_dtoa_r+0xf9c>
 10042c8:	1006b2c0 	call	1006b2c <__multadd>
 10042cc:	a00b883a 	mov	r5,r20
 10042d0:	000f883a 	mov	r7,zero
 10042d4:	01800284 	movi	r6,10
 10042d8:	e009883a 	mov	r4,fp
 10042dc:	1023883a 	mov	r17,r2
 10042e0:	1006b2c0 	call	1006b2c <__multadd>
 10042e4:	1029883a 	mov	r20,r2
 10042e8:	b027883a 	mov	r19,r22
 10042ec:	003fc006 	br	10041f0 <_dtoa_r+0xe30>
 10042f0:	9011883a 	mov	r8,r18
 10042f4:	00800e0e 	bge	zero,r2,1004330 <_dtoa_r+0xf70>
 10042f8:	800b883a 	mov	r5,r16
 10042fc:	01800044 	movi	r6,1
 1004300:	e009883a 	mov	r4,fp
 1004304:	da001715 	stw	r8,92(sp)
 1004308:	10071dc0 	call	10071dc <__lshift>
 100430c:	a80b883a 	mov	r5,r21
 1004310:	1009883a 	mov	r4,r2
 1004314:	1021883a 	mov	r16,r2
 1004318:	10073240 	call	1007324 <__mcmp>
 100431c:	da001717 	ldw	r8,92(sp)
 1004320:	0081960e 	bge	zero,r2,100497c <_dtoa_r+0x15bc>
 1004324:	00800e44 	movi	r2,57
 1004328:	40817026 	beq	r8,r2,10048ec <_dtoa_r+0x152c>
 100432c:	ba000c44 	addi	r8,r23,49
 1004330:	8825883a 	mov	r18,r17
 1004334:	9dc00044 	addi	r23,r19,1
 1004338:	9a000005 	stb	r8,0(r19)
 100433c:	a023883a 	mov	r17,r20
 1004340:	dc000915 	stw	r16,36(sp)
 1004344:	003f2406 	br	1003fd8 <_dtoa_r+0xc18>
 1004348:	00800e44 	movi	r2,57
 100434c:	9011883a 	mov	r8,r18
 1004350:	90816626 	beq	r18,r2,10048ec <_dtoa_r+0x152c>
 1004354:	05bff516 	blt	zero,r22,100432c <_dtoa_r+0xf6c>
 1004358:	003ff506 	br	1004330 <_dtoa_r+0xf70>
 100435c:	1006b2c0 	call	1006b2c <__multadd>
 1004360:	1023883a 	mov	r17,r2
 1004364:	1029883a 	mov	r20,r2
 1004368:	003fdf06 	br	10042e8 <_dtoa_r+0xf28>
 100436c:	e009883a 	mov	r4,fp
 1004370:	1006b040 	call	1006b04 <_Bfree>
 1004374:	00800044 	movi	r2,1
 1004378:	003fbc06 	br	100426c <_dtoa_r+0xeac>
 100437c:	a80b883a 	mov	r5,r21
 1004380:	8009883a 	mov	r4,r16
 1004384:	10073240 	call	1007324 <__mcmp>
 1004388:	103edb0e 	bge	r2,zero,1003ef8 <_dtoa_r+0xb38>
 100438c:	800b883a 	mov	r5,r16
 1004390:	000f883a 	mov	r7,zero
 1004394:	01800284 	movi	r6,10
 1004398:	e009883a 	mov	r4,fp
 100439c:	1006b2c0 	call	1006b2c <__multadd>
 10043a0:	1021883a 	mov	r16,r2
 10043a4:	d8800517 	ldw	r2,20(sp)
 10043a8:	d8c00b17 	ldw	r3,44(sp)
 10043ac:	10bfffc4 	addi	r2,r2,-1
 10043b0:	d8800515 	stw	r2,20(sp)
 10043b4:	183f761e 	bne	r3,zero,1004190 <_dtoa_r+0xdd0>
 10043b8:	d9000c17 	ldw	r4,48(sp)
 10043bc:	0101730e 	bge	zero,r4,100498c <_dtoa_r+0x15cc>
 10043c0:	d9000615 	stw	r4,24(sp)
 10043c4:	003ed006 	br	1003f08 <_dtoa_r+0xb48>
 10043c8:	00800084 	movi	r2,2
 10043cc:	3081861e 	bne	r6,r2,10049e8 <_dtoa_r+0x1628>
 10043d0:	d8000b15 	stw	zero,44(sp)
 10043d4:	003f3c06 	br	10040c8 <_dtoa_r+0xd08>
 10043d8:	dc000917 	ldw	r16,36(sp)
 10043dc:	003e9206 	br	1003e28 <_dtoa_r+0xa68>
 10043e0:	d9c00317 	ldw	r7,12(sp)
 10043e4:	00800084 	movi	r2,2
 10043e8:	11fec50e 	bge	r2,r7,1003f00 <_dtoa_r+0xb40>
 10043ec:	d9000617 	ldw	r4,24(sp)
 10043f0:	20013c1e 	bne	r4,zero,10048e4 <_dtoa_r+0x1524>
 10043f4:	a80b883a 	mov	r5,r21
 10043f8:	000f883a 	mov	r7,zero
 10043fc:	01800144 	movi	r6,5
 1004400:	e009883a 	mov	r4,fp
 1004404:	1006b2c0 	call	1006b2c <__multadd>
 1004408:	100b883a 	mov	r5,r2
 100440c:	8009883a 	mov	r4,r16
 1004410:	102b883a 	mov	r21,r2
 1004414:	10073240 	call	1007324 <__mcmp>
 1004418:	dc000915 	stw	r16,36(sp)
 100441c:	00bf410e 	bge	zero,r2,1004124 <_dtoa_r+0xd64>
 1004420:	d9c00717 	ldw	r7,28(sp)
 1004424:	00800c44 	movi	r2,49
 1004428:	38800005 	stb	r2,0(r7)
 100442c:	d8800517 	ldw	r2,20(sp)
 1004430:	3dc00044 	addi	r23,r7,1
 1004434:	10800044 	addi	r2,r2,1
 1004438:	d8800515 	stw	r2,20(sp)
 100443c:	003f3d06 	br	1004134 <_dtoa_r+0xd74>
 1004440:	d9800517 	ldw	r6,20(sp)
 1004444:	d9c00717 	ldw	r7,28(sp)
 1004448:	00800c44 	movi	r2,49
 100444c:	31800044 	addi	r6,r6,1
 1004450:	d9800515 	stw	r6,20(sp)
 1004454:	38800005 	stb	r2,0(r7)
 1004458:	003edf06 	br	1003fd8 <_dtoa_r+0xc18>
 100445c:	d8000b15 	stw	zero,44(sp)
 1004460:	003c9f06 	br	10036e0 <_dtoa_r+0x320>
 1004464:	903e7e1e 	bne	r18,zero,1003e60 <_dtoa_r+0xaa0>
 1004468:	00800434 	movhi	r2,16
 100446c:	10bfffc4 	addi	r2,r2,-1
 1004470:	9884703a 	and	r2,r19,r2
 1004474:	1000ea1e 	bne	r2,zero,1004820 <_dtoa_r+0x1460>
 1004478:	9cdffc2c 	andhi	r19,r19,32752
 100447c:	9800e826 	beq	r19,zero,1004820 <_dtoa_r+0x1460>
 1004480:	d9c00817 	ldw	r7,32(sp)
 1004484:	b5800044 	addi	r22,r22,1
 1004488:	04c00044 	movi	r19,1
 100448c:	39c00044 	addi	r7,r7,1
 1004490:	d9c00815 	stw	r7,32(sp)
 1004494:	d8800d17 	ldw	r2,52(sp)
 1004498:	103e721e 	bne	r2,zero,1003e64 <_dtoa_r+0xaa4>
 100449c:	00800044 	movi	r2,1
 10044a0:	003e7906 	br	1003e88 <_dtoa_r+0xac8>
 10044a4:	8009883a 	mov	r4,r16
 10044a8:	100d2fc0 	call	100d2fc <__floatsidf>
 10044ac:	d9800f17 	ldw	r6,60(sp)
 10044b0:	d9c01017 	ldw	r7,64(sp)
 10044b4:	1009883a 	mov	r4,r2
 10044b8:	180b883a 	mov	r5,r3
 10044bc:	100c2680 	call	100c268 <__muldf3>
 10044c0:	000d883a 	mov	r6,zero
 10044c4:	01d00734 	movhi	r7,16412
 10044c8:	1009883a 	mov	r4,r2
 10044cc:	180b883a 	mov	r5,r3
 10044d0:	100ae7c0 	call	100ae7c <__adddf3>
 10044d4:	047f3034 	movhi	r17,64704
 10044d8:	1021883a 	mov	r16,r2
 10044dc:	1c63883a 	add	r17,r3,r17
 10044e0:	d9000f17 	ldw	r4,60(sp)
 10044e4:	d9401017 	ldw	r5,64(sp)
 10044e8:	000d883a 	mov	r6,zero
 10044ec:	01d00534 	movhi	r7,16404
 10044f0:	100c9800 	call	100c980 <__subdf3>
 10044f4:	800d883a 	mov	r6,r16
 10044f8:	880f883a 	mov	r7,r17
 10044fc:	1009883a 	mov	r4,r2
 1004500:	180b883a 	mov	r5,r3
 1004504:	102b883a 	mov	r21,r2
 1004508:	1829883a 	mov	r20,r3
 100450c:	100c0980 	call	100c098 <__gedf2>
 1004510:	00806c16 	blt	zero,r2,10046c4 <_dtoa_r+0x1304>
 1004514:	89e0003c 	xorhi	r7,r17,32768
 1004518:	800d883a 	mov	r6,r16
 100451c:	a809883a 	mov	r4,r21
 1004520:	a00b883a 	mov	r5,r20
 1004524:	100c1740 	call	100c174 <__ledf2>
 1004528:	103d7e0e 	bge	r2,zero,1003b24 <_dtoa_r+0x764>
 100452c:	002b883a 	mov	r21,zero
 1004530:	0023883a 	mov	r17,zero
 1004534:	003efb06 	br	1004124 <_dtoa_r+0xd64>
 1004538:	d8800717 	ldw	r2,28(sp)
 100453c:	003bd006 	br	1003480 <_dtoa_r+0xc0>
 1004540:	d9000a17 	ldw	r4,40(sp)
 1004544:	d9800d17 	ldw	r6,52(sp)
 1004548:	dd400a15 	stw	r21,40(sp)
 100454c:	a905c83a 	sub	r2,r21,r4
 1004550:	308d883a 	add	r6,r6,r2
 1004554:	d9800d15 	stw	r6,52(sp)
 1004558:	002b883a 	mov	r21,zero
 100455c:	003e0606 	br	1003d78 <_dtoa_r+0x9b8>
 1004560:	9023883a 	mov	r17,r18
 1004564:	9829883a 	mov	r20,r19
 1004568:	04000084 	movi	r16,2
 100456c:	003c9206 	br	10037b8 <_dtoa_r+0x3f8>
 1004570:	04000044 	movi	r16,1
 1004574:	dc000c15 	stw	r16,48(sp)
 1004578:	dc000615 	stw	r16,24(sp)
 100457c:	dc002215 	stw	r16,136(sp)
 1004580:	e0001115 	stw	zero,68(fp)
 1004584:	000b883a 	mov	r5,zero
 1004588:	003c6906 	br	1003730 <_dtoa_r+0x370>
 100458c:	3021883a 	mov	r16,r6
 1004590:	003ffb06 	br	1004580 <_dtoa_r+0x11c0>
 1004594:	1000021e 	bne	r2,zero,10045a0 <_dtoa_r+0x11e0>
 1004598:	4200004c 	andi	r8,r8,1
 100459c:	403e7d1e 	bne	r8,zero,1003f94 <_dtoa_r+0xbd4>
 10045a0:	01000c04 	movi	r4,48
 10045a4:	00000106 	br	10045ac <_dtoa_r+0x11ec>
 10045a8:	102f883a 	mov	r23,r2
 10045ac:	b8bfffc4 	addi	r2,r23,-1
 10045b0:	10c00007 	ldb	r3,0(r2)
 10045b4:	193ffc26 	beq	r3,r4,10045a8 <_dtoa_r+0x11e8>
 10045b8:	003e8706 	br	1003fd8 <_dtoa_r+0xc18>
 10045bc:	d8800517 	ldw	r2,20(sp)
 10045c0:	00a3c83a 	sub	r17,zero,r2
 10045c4:	8800a426 	beq	r17,zero,1004858 <_dtoa_r+0x1498>
 10045c8:	888003cc 	andi	r2,r17,15
 10045cc:	100490fa 	slli	r2,r2,3
 10045d0:	00c04074 	movhi	r3,257
 10045d4:	18ff8d04 	addi	r3,r3,-460
 10045d8:	1885883a 	add	r2,r3,r2
 10045dc:	11800017 	ldw	r6,0(r2)
 10045e0:	11c00117 	ldw	r7,4(r2)
 10045e4:	9009883a 	mov	r4,r18
 10045e8:	980b883a 	mov	r5,r19
 10045ec:	8823d13a 	srai	r17,r17,4
 10045f0:	100c2680 	call	100c268 <__muldf3>
 10045f4:	d8800f15 	stw	r2,60(sp)
 10045f8:	d8c01015 	stw	r3,64(sp)
 10045fc:	8800e826 	beq	r17,zero,10049a0 <_dtoa_r+0x15e0>
 1004600:	05004074 	movhi	r20,257
 1004604:	a53f8304 	addi	r20,r20,-500
 1004608:	04000084 	movi	r16,2
 100460c:	8980004c 	andi	r6,r17,1
 1004610:	1009883a 	mov	r4,r2
 1004614:	8823d07a 	srai	r17,r17,1
 1004618:	180b883a 	mov	r5,r3
 100461c:	30000426 	beq	r6,zero,1004630 <_dtoa_r+0x1270>
 1004620:	a1800017 	ldw	r6,0(r20)
 1004624:	a1c00117 	ldw	r7,4(r20)
 1004628:	84000044 	addi	r16,r16,1
 100462c:	100c2680 	call	100c268 <__muldf3>
 1004630:	a5000204 	addi	r20,r20,8
 1004634:	883ff51e 	bne	r17,zero,100460c <_dtoa_r+0x124c>
 1004638:	d8800f15 	stw	r2,60(sp)
 100463c:	d8c01015 	stw	r3,64(sp)
 1004640:	003c7606 	br	100381c <_dtoa_r+0x45c>
 1004644:	00c00c04 	movi	r3,48
 1004648:	10c00005 	stb	r3,0(r2)
 100464c:	d8c00517 	ldw	r3,20(sp)
 1004650:	bd3fffc3 	ldbu	r20,-1(r23)
 1004654:	18c00044 	addi	r3,r3,1
 1004658:	d8c00515 	stw	r3,20(sp)
 100465c:	003db906 	br	1003d44 <_dtoa_r+0x984>
 1004660:	89400117 	ldw	r5,4(r17)
 1004664:	e009883a 	mov	r4,fp
 1004668:	1006a5c0 	call	1006a5c <_Balloc>
 100466c:	89800417 	ldw	r6,16(r17)
 1004670:	89400304 	addi	r5,r17,12
 1004674:	11000304 	addi	r4,r2,12
 1004678:	31800084 	addi	r6,r6,2
 100467c:	318d883a 	add	r6,r6,r6
 1004680:	318d883a 	add	r6,r6,r6
 1004684:	1027883a 	mov	r19,r2
 1004688:	10066900 	call	1006690 <memcpy>
 100468c:	01800044 	movi	r6,1
 1004690:	980b883a 	mov	r5,r19
 1004694:	e009883a 	mov	r4,fp
 1004698:	10071dc0 	call	10071dc <__lshift>
 100469c:	1029883a 	mov	r20,r2
 10046a0:	003ecc06 	br	10041d4 <_dtoa_r+0xe14>
 10046a4:	00800e44 	movi	r2,57
 10046a8:	90809026 	beq	r18,r2,10048ec <_dtoa_r+0x152c>
 10046ac:	92000044 	addi	r8,r18,1
 10046b0:	003f1f06 	br	1004330 <_dtoa_r+0xf70>
 10046b4:	9011883a 	mov	r8,r18
 10046b8:	8825883a 	mov	r18,r17
 10046bc:	a023883a 	mov	r17,r20
 10046c0:	003e2906 	br	1003f68 <_dtoa_r+0xba8>
 10046c4:	002b883a 	mov	r21,zero
 10046c8:	0023883a 	mov	r17,zero
 10046cc:	003f5406 	br	1004420 <_dtoa_r+0x1060>
 10046d0:	61bfffc4 	addi	r6,r12,-1
 10046d4:	300490fa 	slli	r2,r6,3
 10046d8:	00c04074 	movhi	r3,257
 10046dc:	18ff8d04 	addi	r3,r3,-460
 10046e0:	1885883a 	add	r2,r3,r2
 10046e4:	11000017 	ldw	r4,0(r2)
 10046e8:	11400117 	ldw	r5,4(r2)
 10046ec:	d8800717 	ldw	r2,28(sp)
 10046f0:	880f883a 	mov	r7,r17
 10046f4:	d9801215 	stw	r6,72(sp)
 10046f8:	800d883a 	mov	r6,r16
 10046fc:	db001615 	stw	r12,88(sp)
 1004700:	15c00044 	addi	r23,r2,1
 1004704:	100c2680 	call	100c268 <__muldf3>
 1004708:	d9401017 	ldw	r5,64(sp)
 100470c:	d9000f17 	ldw	r4,60(sp)
 1004710:	d8c01515 	stw	r3,84(sp)
 1004714:	d8801415 	stw	r2,80(sp)
 1004718:	100d27c0 	call	100d27c <__fixdfsi>
 100471c:	1009883a 	mov	r4,r2
 1004720:	1021883a 	mov	r16,r2
 1004724:	100d2fc0 	call	100d2fc <__floatsidf>
 1004728:	d9000f17 	ldw	r4,60(sp)
 100472c:	d9401017 	ldw	r5,64(sp)
 1004730:	100d883a 	mov	r6,r2
 1004734:	180f883a 	mov	r7,r3
 1004738:	100c9800 	call	100c980 <__subdf3>
 100473c:	1829883a 	mov	r20,r3
 1004740:	d8c00717 	ldw	r3,28(sp)
 1004744:	84000c04 	addi	r16,r16,48
 1004748:	1023883a 	mov	r17,r2
 100474c:	1c000005 	stb	r16,0(r3)
 1004750:	db001617 	ldw	r12,88(sp)
 1004754:	00800044 	movi	r2,1
 1004758:	60802226 	beq	r12,r2,10047e4 <_dtoa_r+0x1424>
 100475c:	d9c00717 	ldw	r7,28(sp)
 1004760:	8805883a 	mov	r2,r17
 1004764:	b82b883a 	mov	r21,r23
 1004768:	3b19883a 	add	r12,r7,r12
 100476c:	6023883a 	mov	r17,r12
 1004770:	a007883a 	mov	r3,r20
 1004774:	dc800f15 	stw	r18,60(sp)
 1004778:	000d883a 	mov	r6,zero
 100477c:	01d00934 	movhi	r7,16420
 1004780:	1009883a 	mov	r4,r2
 1004784:	180b883a 	mov	r5,r3
 1004788:	100c2680 	call	100c268 <__muldf3>
 100478c:	180b883a 	mov	r5,r3
 1004790:	1009883a 	mov	r4,r2
 1004794:	1829883a 	mov	r20,r3
 1004798:	1025883a 	mov	r18,r2
 100479c:	100d27c0 	call	100d27c <__fixdfsi>
 10047a0:	1009883a 	mov	r4,r2
 10047a4:	1021883a 	mov	r16,r2
 10047a8:	100d2fc0 	call	100d2fc <__floatsidf>
 10047ac:	100d883a 	mov	r6,r2
 10047b0:	180f883a 	mov	r7,r3
 10047b4:	9009883a 	mov	r4,r18
 10047b8:	a00b883a 	mov	r5,r20
 10047bc:	84000c04 	addi	r16,r16,48
 10047c0:	100c9800 	call	100c980 <__subdf3>
 10047c4:	ad400044 	addi	r21,r21,1
 10047c8:	ac3fffc5 	stb	r16,-1(r21)
 10047cc:	ac7fea1e 	bne	r21,r17,1004778 <_dtoa_r+0x13b8>
 10047d0:	1023883a 	mov	r17,r2
 10047d4:	d8801217 	ldw	r2,72(sp)
 10047d8:	dc800f17 	ldw	r18,60(sp)
 10047dc:	1829883a 	mov	r20,r3
 10047e0:	b8af883a 	add	r23,r23,r2
 10047e4:	d9001417 	ldw	r4,80(sp)
 10047e8:	d9401517 	ldw	r5,84(sp)
 10047ec:	000d883a 	mov	r6,zero
 10047f0:	01cff834 	movhi	r7,16352
 10047f4:	100ae7c0 	call	100ae7c <__adddf3>
 10047f8:	880d883a 	mov	r6,r17
 10047fc:	a00f883a 	mov	r7,r20
 1004800:	1009883a 	mov	r4,r2
 1004804:	180b883a 	mov	r5,r3
 1004808:	100c1740 	call	100c174 <__ledf2>
 100480c:	10003e0e 	bge	r2,zero,1004908 <_dtoa_r+0x1548>
 1004810:	d9001317 	ldw	r4,76(sp)
 1004814:	bd3fffc3 	ldbu	r20,-1(r23)
 1004818:	d9000515 	stw	r4,20(sp)
 100481c:	003d3b06 	br	1003d0c <_dtoa_r+0x94c>
 1004820:	0027883a 	mov	r19,zero
 1004824:	003f1b06 	br	1004494 <_dtoa_r+0x10d4>
 1004828:	d8800817 	ldw	r2,32(sp)
 100482c:	11e9c83a 	sub	r20,r2,r7
 1004830:	0005883a 	mov	r2,zero
 1004834:	003d5406 	br	1003d88 <_dtoa_r+0x9c8>
 1004838:	00800044 	movi	r2,1
 100483c:	003dc706 	br	1003f5c <_dtoa_r+0xb9c>
 1004840:	d8c00217 	ldw	r3,8(sp)
 1004844:	00800d84 	movi	r2,54
 1004848:	dd400a17 	ldw	r21,40(sp)
 100484c:	10c5c83a 	sub	r2,r2,r3
 1004850:	dd000817 	ldw	r20,32(sp)
 1004854:	003d4c06 	br	1003d88 <_dtoa_r+0x9c8>
 1004858:	dc800f15 	stw	r18,60(sp)
 100485c:	dcc01015 	stw	r19,64(sp)
 1004860:	04000084 	movi	r16,2
 1004864:	003bed06 	br	100381c <_dtoa_r+0x45c>
 1004868:	d9000617 	ldw	r4,24(sp)
 100486c:	203f0d26 	beq	r4,zero,10044a4 <_dtoa_r+0x10e4>
 1004870:	d9800c17 	ldw	r6,48(sp)
 1004874:	01bcab0e 	bge	zero,r6,1003b24 <_dtoa_r+0x764>
 1004878:	d9401017 	ldw	r5,64(sp)
 100487c:	d9000f17 	ldw	r4,60(sp)
 1004880:	000d883a 	mov	r6,zero
 1004884:	01d00934 	movhi	r7,16420
 1004888:	100c2680 	call	100c268 <__muldf3>
 100488c:	81000044 	addi	r4,r16,1
 1004890:	d8800f15 	stw	r2,60(sp)
 1004894:	d8c01015 	stw	r3,64(sp)
 1004898:	100d2fc0 	call	100d2fc <__floatsidf>
 100489c:	d9800f17 	ldw	r6,60(sp)
 10048a0:	d9c01017 	ldw	r7,64(sp)
 10048a4:	1009883a 	mov	r4,r2
 10048a8:	180b883a 	mov	r5,r3
 10048ac:	100c2680 	call	100c268 <__muldf3>
 10048b0:	01d00734 	movhi	r7,16412
 10048b4:	000d883a 	mov	r6,zero
 10048b8:	1009883a 	mov	r4,r2
 10048bc:	180b883a 	mov	r5,r3
 10048c0:	100ae7c0 	call	100ae7c <__adddf3>
 10048c4:	d9c00517 	ldw	r7,20(sp)
 10048c8:	047f3034 	movhi	r17,64704
 10048cc:	1021883a 	mov	r16,r2
 10048d0:	39ffffc4 	addi	r7,r7,-1
 10048d4:	d9c01315 	stw	r7,76(sp)
 10048d8:	1c63883a 	add	r17,r3,r17
 10048dc:	db000c17 	ldw	r12,48(sp)
 10048e0:	003bea06 	br	100388c <_dtoa_r+0x4cc>
 10048e4:	dc000915 	stw	r16,36(sp)
 10048e8:	003e0e06 	br	1004124 <_dtoa_r+0xd64>
 10048ec:	01000e44 	movi	r4,57
 10048f0:	8825883a 	mov	r18,r17
 10048f4:	9dc00044 	addi	r23,r19,1
 10048f8:	99000005 	stb	r4,0(r19)
 10048fc:	a023883a 	mov	r17,r20
 1004900:	dc000915 	stw	r16,36(sp)
 1004904:	003da406 	br	1003f98 <_dtoa_r+0xbd8>
 1004908:	d9801417 	ldw	r6,80(sp)
 100490c:	d9c01517 	ldw	r7,84(sp)
 1004910:	0009883a 	mov	r4,zero
 1004914:	014ff834 	movhi	r5,16352
 1004918:	100c9800 	call	100c980 <__subdf3>
 100491c:	880d883a 	mov	r6,r17
 1004920:	a00f883a 	mov	r7,r20
 1004924:	1009883a 	mov	r4,r2
 1004928:	180b883a 	mov	r5,r3
 100492c:	100c0980 	call	100c098 <__gedf2>
 1004930:	00bc7c0e 	bge	zero,r2,1003b24 <_dtoa_r+0x764>
 1004934:	01000c04 	movi	r4,48
 1004938:	00000106 	br	1004940 <_dtoa_r+0x1580>
 100493c:	102f883a 	mov	r23,r2
 1004940:	b8bfffc4 	addi	r2,r23,-1
 1004944:	10c00007 	ldb	r3,0(r2)
 1004948:	193ffc26 	beq	r3,r4,100493c <_dtoa_r+0x157c>
 100494c:	d9801317 	ldw	r6,76(sp)
 1004950:	d9800515 	stw	r6,20(sp)
 1004954:	003c4406 	br	1003a68 <_dtoa_r+0x6a8>
 1004958:	d9801317 	ldw	r6,76(sp)
 100495c:	d9800515 	stw	r6,20(sp)
 1004960:	003cea06 	br	1003d0c <_dtoa_r+0x94c>
 1004964:	dd800f17 	ldw	r22,60(sp)
 1004968:	dcc01017 	ldw	r19,64(sp)
 100496c:	dc801217 	ldw	r18,72(sp)
 1004970:	003c6c06 	br	1003b24 <_dtoa_r+0x764>
 1004974:	903e031e 	bne	r18,zero,1004184 <_dtoa_r+0xdc4>
 1004978:	003ebb06 	br	1004468 <_dtoa_r+0x10a8>
 100497c:	103e6c1e 	bne	r2,zero,1004330 <_dtoa_r+0xf70>
 1004980:	4080004c 	andi	r2,r8,1
 1004984:	103e6a26 	beq	r2,zero,1004330 <_dtoa_r+0xf70>
 1004988:	003e6606 	br	1004324 <_dtoa_r+0xf64>
 100498c:	d8c00317 	ldw	r3,12(sp)
 1004990:	00800084 	movi	r2,2
 1004994:	10c02916 	blt	r2,r3,1004a3c <_dtoa_r+0x167c>
 1004998:	d9000c17 	ldw	r4,48(sp)
 100499c:	003e8806 	br	10043c0 <_dtoa_r+0x1000>
 10049a0:	04000084 	movi	r16,2
 10049a4:	003b9d06 	br	100381c <_dtoa_r+0x45c>
 10049a8:	d9001317 	ldw	r4,76(sp)
 10049ac:	d9000515 	stw	r4,20(sp)
 10049b0:	003cd606 	br	1003d0c <_dtoa_r+0x94c>
 10049b4:	d8801317 	ldw	r2,76(sp)
 10049b8:	d8800515 	stw	r2,20(sp)
 10049bc:	003c2a06 	br	1003a68 <_dtoa_r+0x6a8>
 10049c0:	d9800317 	ldw	r6,12(sp)
 10049c4:	00800084 	movi	r2,2
 10049c8:	11801516 	blt	r2,r6,1004a20 <_dtoa_r+0x1660>
 10049cc:	d9c00c17 	ldw	r7,48(sp)
 10049d0:	d9c00615 	stw	r7,24(sp)
 10049d4:	003df706 	br	10041b4 <_dtoa_r+0xdf4>
 10049d8:	193d3926 	beq	r3,r4,1003ec0 <_dtoa_r+0xb00>
 10049dc:	00c00f04 	movi	r3,60
 10049e0:	1885c83a 	sub	r2,r3,r2
 10049e4:	003ddf06 	br	1004164 <_dtoa_r+0xda4>
 10049e8:	e009883a 	mov	r4,fp
 10049ec:	e0001115 	stw	zero,68(fp)
 10049f0:	000b883a 	mov	r5,zero
 10049f4:	1006a5c0 	call	1006a5c <_Balloc>
 10049f8:	d8800715 	stw	r2,28(sp)
 10049fc:	d8c00717 	ldw	r3,28(sp)
 1004a00:	00bfffc4 	movi	r2,-1
 1004a04:	01000044 	movi	r4,1
 1004a08:	d8800c15 	stw	r2,48(sp)
 1004a0c:	e0c01015 	stw	r3,64(fp)
 1004a10:	d9000b15 	stw	r4,44(sp)
 1004a14:	d8800615 	stw	r2,24(sp)
 1004a18:	d8002215 	stw	zero,136(sp)
 1004a1c:	003c4106 	br	1003b24 <_dtoa_r+0x764>
 1004a20:	d8c00c17 	ldw	r3,48(sp)
 1004a24:	d8c00615 	stw	r3,24(sp)
 1004a28:	003e7006 	br	10043ec <_dtoa_r+0x102c>
 1004a2c:	04400044 	movi	r17,1
 1004a30:	003b2006 	br	10036b4 <_dtoa_r+0x2f4>
 1004a34:	000b883a 	mov	r5,zero
 1004a38:	003b3d06 	br	1003730 <_dtoa_r+0x370>
 1004a3c:	d8800c17 	ldw	r2,48(sp)
 1004a40:	d8800615 	stw	r2,24(sp)
 1004a44:	003e6906 	br	10043ec <_dtoa_r+0x102c>

01004a48 <__sflush_r>:
 1004a48:	2880030b 	ldhu	r2,12(r5)
 1004a4c:	defffb04 	addi	sp,sp,-20
 1004a50:	dcc00315 	stw	r19,12(sp)
 1004a54:	dc400115 	stw	r17,4(sp)
 1004a58:	dfc00415 	stw	ra,16(sp)
 1004a5c:	dc800215 	stw	r18,8(sp)
 1004a60:	dc000015 	stw	r16,0(sp)
 1004a64:	10c0020c 	andi	r3,r2,8
 1004a68:	2823883a 	mov	r17,r5
 1004a6c:	2027883a 	mov	r19,r4
 1004a70:	1800311e 	bne	r3,zero,1004b38 <__sflush_r+0xf0>
 1004a74:	28c00117 	ldw	r3,4(r5)
 1004a78:	10820014 	ori	r2,r2,2048
 1004a7c:	2880030d 	sth	r2,12(r5)
 1004a80:	00c04b0e 	bge	zero,r3,1004bb0 <__sflush_r+0x168>
 1004a84:	8a000a17 	ldw	r8,40(r17)
 1004a88:	40002326 	beq	r8,zero,1004b18 <__sflush_r+0xd0>
 1004a8c:	9c000017 	ldw	r16,0(r19)
 1004a90:	10c4000c 	andi	r3,r2,4096
 1004a94:	98000015 	stw	zero,0(r19)
 1004a98:	18004826 	beq	r3,zero,1004bbc <__sflush_r+0x174>
 1004a9c:	89801417 	ldw	r6,80(r17)
 1004aa0:	10c0010c 	andi	r3,r2,4
 1004aa4:	18000626 	beq	r3,zero,1004ac0 <__sflush_r+0x78>
 1004aa8:	88c00117 	ldw	r3,4(r17)
 1004aac:	88800c17 	ldw	r2,48(r17)
 1004ab0:	30cdc83a 	sub	r6,r6,r3
 1004ab4:	10000226 	beq	r2,zero,1004ac0 <__sflush_r+0x78>
 1004ab8:	88800f17 	ldw	r2,60(r17)
 1004abc:	308dc83a 	sub	r6,r6,r2
 1004ac0:	89400717 	ldw	r5,28(r17)
 1004ac4:	000f883a 	mov	r7,zero
 1004ac8:	9809883a 	mov	r4,r19
 1004acc:	403ee83a 	callr	r8
 1004ad0:	00ffffc4 	movi	r3,-1
 1004ad4:	10c04426 	beq	r2,r3,1004be8 <__sflush_r+0x1a0>
 1004ad8:	88c0030b 	ldhu	r3,12(r17)
 1004adc:	89000417 	ldw	r4,16(r17)
 1004ae0:	88000115 	stw	zero,4(r17)
 1004ae4:	197dffcc 	andi	r5,r3,63487
 1004ae8:	8940030d 	sth	r5,12(r17)
 1004aec:	89000015 	stw	r4,0(r17)
 1004af0:	18c4000c 	andi	r3,r3,4096
 1004af4:	18002c1e 	bne	r3,zero,1004ba8 <__sflush_r+0x160>
 1004af8:	89400c17 	ldw	r5,48(r17)
 1004afc:	9c000015 	stw	r16,0(r19)
 1004b00:	28000526 	beq	r5,zero,1004b18 <__sflush_r+0xd0>
 1004b04:	88801004 	addi	r2,r17,64
 1004b08:	28800226 	beq	r5,r2,1004b14 <__sflush_r+0xcc>
 1004b0c:	9809883a 	mov	r4,r19
 1004b10:	10051b40 	call	10051b4 <_free_r>
 1004b14:	88000c15 	stw	zero,48(r17)
 1004b18:	0005883a 	mov	r2,zero
 1004b1c:	dfc00417 	ldw	ra,16(sp)
 1004b20:	dcc00317 	ldw	r19,12(sp)
 1004b24:	dc800217 	ldw	r18,8(sp)
 1004b28:	dc400117 	ldw	r17,4(sp)
 1004b2c:	dc000017 	ldw	r16,0(sp)
 1004b30:	dec00504 	addi	sp,sp,20
 1004b34:	f800283a 	ret
 1004b38:	2c800417 	ldw	r18,16(r5)
 1004b3c:	903ff626 	beq	r18,zero,1004b18 <__sflush_r+0xd0>
 1004b40:	2c000017 	ldw	r16,0(r5)
 1004b44:	108000cc 	andi	r2,r2,3
 1004b48:	2c800015 	stw	r18,0(r5)
 1004b4c:	84a1c83a 	sub	r16,r16,r18
 1004b50:	1000131e 	bne	r2,zero,1004ba0 <__sflush_r+0x158>
 1004b54:	28800517 	ldw	r2,20(r5)
 1004b58:	88800215 	stw	r2,8(r17)
 1004b5c:	04000316 	blt	zero,r16,1004b6c <__sflush_r+0x124>
 1004b60:	003fed06 	br	1004b18 <__sflush_r+0xd0>
 1004b64:	90a5883a 	add	r18,r18,r2
 1004b68:	043feb0e 	bge	zero,r16,1004b18 <__sflush_r+0xd0>
 1004b6c:	88800917 	ldw	r2,36(r17)
 1004b70:	89400717 	ldw	r5,28(r17)
 1004b74:	800f883a 	mov	r7,r16
 1004b78:	900d883a 	mov	r6,r18
 1004b7c:	9809883a 	mov	r4,r19
 1004b80:	103ee83a 	callr	r2
 1004b84:	80a1c83a 	sub	r16,r16,r2
 1004b88:	00bff616 	blt	zero,r2,1004b64 <__sflush_r+0x11c>
 1004b8c:	88c0030b 	ldhu	r3,12(r17)
 1004b90:	00bfffc4 	movi	r2,-1
 1004b94:	18c01014 	ori	r3,r3,64
 1004b98:	88c0030d 	sth	r3,12(r17)
 1004b9c:	003fdf06 	br	1004b1c <__sflush_r+0xd4>
 1004ba0:	0005883a 	mov	r2,zero
 1004ba4:	003fec06 	br	1004b58 <__sflush_r+0x110>
 1004ba8:	88801415 	stw	r2,80(r17)
 1004bac:	003fd206 	br	1004af8 <__sflush_r+0xb0>
 1004bb0:	28c00f17 	ldw	r3,60(r5)
 1004bb4:	00ffb316 	blt	zero,r3,1004a84 <__sflush_r+0x3c>
 1004bb8:	003fd706 	br	1004b18 <__sflush_r+0xd0>
 1004bbc:	89400717 	ldw	r5,28(r17)
 1004bc0:	000d883a 	mov	r6,zero
 1004bc4:	01c00044 	movi	r7,1
 1004bc8:	9809883a 	mov	r4,r19
 1004bcc:	403ee83a 	callr	r8
 1004bd0:	100d883a 	mov	r6,r2
 1004bd4:	00bfffc4 	movi	r2,-1
 1004bd8:	30801426 	beq	r6,r2,1004c2c <__sflush_r+0x1e4>
 1004bdc:	8880030b 	ldhu	r2,12(r17)
 1004be0:	8a000a17 	ldw	r8,40(r17)
 1004be4:	003fae06 	br	1004aa0 <__sflush_r+0x58>
 1004be8:	98c00017 	ldw	r3,0(r19)
 1004bec:	183fba26 	beq	r3,zero,1004ad8 <__sflush_r+0x90>
 1004bf0:	01000744 	movi	r4,29
 1004bf4:	19000626 	beq	r3,r4,1004c10 <__sflush_r+0x1c8>
 1004bf8:	01000584 	movi	r4,22
 1004bfc:	19000426 	beq	r3,r4,1004c10 <__sflush_r+0x1c8>
 1004c00:	88c0030b 	ldhu	r3,12(r17)
 1004c04:	18c01014 	ori	r3,r3,64
 1004c08:	88c0030d 	sth	r3,12(r17)
 1004c0c:	003fc306 	br	1004b1c <__sflush_r+0xd4>
 1004c10:	8880030b 	ldhu	r2,12(r17)
 1004c14:	88c00417 	ldw	r3,16(r17)
 1004c18:	88000115 	stw	zero,4(r17)
 1004c1c:	10bdffcc 	andi	r2,r2,63487
 1004c20:	8880030d 	sth	r2,12(r17)
 1004c24:	88c00015 	stw	r3,0(r17)
 1004c28:	003fb306 	br	1004af8 <__sflush_r+0xb0>
 1004c2c:	98800017 	ldw	r2,0(r19)
 1004c30:	103fea26 	beq	r2,zero,1004bdc <__sflush_r+0x194>
 1004c34:	00c00744 	movi	r3,29
 1004c38:	10c00226 	beq	r2,r3,1004c44 <__sflush_r+0x1fc>
 1004c3c:	00c00584 	movi	r3,22
 1004c40:	10c0031e 	bne	r2,r3,1004c50 <__sflush_r+0x208>
 1004c44:	9c000015 	stw	r16,0(r19)
 1004c48:	0005883a 	mov	r2,zero
 1004c4c:	003fb306 	br	1004b1c <__sflush_r+0xd4>
 1004c50:	88c0030b 	ldhu	r3,12(r17)
 1004c54:	3005883a 	mov	r2,r6
 1004c58:	18c01014 	ori	r3,r3,64
 1004c5c:	88c0030d 	sth	r3,12(r17)
 1004c60:	003fae06 	br	1004b1c <__sflush_r+0xd4>

01004c64 <_fflush_r>:
 1004c64:	defffd04 	addi	sp,sp,-12
 1004c68:	dc000115 	stw	r16,4(sp)
 1004c6c:	dfc00215 	stw	ra,8(sp)
 1004c70:	2021883a 	mov	r16,r4
 1004c74:	20000226 	beq	r4,zero,1004c80 <_fflush_r+0x1c>
 1004c78:	20800e17 	ldw	r2,56(r4)
 1004c7c:	10000c26 	beq	r2,zero,1004cb0 <_fflush_r+0x4c>
 1004c80:	2880030f 	ldh	r2,12(r5)
 1004c84:	1000051e 	bne	r2,zero,1004c9c <_fflush_r+0x38>
 1004c88:	0005883a 	mov	r2,zero
 1004c8c:	dfc00217 	ldw	ra,8(sp)
 1004c90:	dc000117 	ldw	r16,4(sp)
 1004c94:	dec00304 	addi	sp,sp,12
 1004c98:	f800283a 	ret
 1004c9c:	8009883a 	mov	r4,r16
 1004ca0:	dfc00217 	ldw	ra,8(sp)
 1004ca4:	dc000117 	ldw	r16,4(sp)
 1004ca8:	dec00304 	addi	sp,sp,12
 1004cac:	1004a481 	jmpi	1004a48 <__sflush_r>
 1004cb0:	d9400015 	stw	r5,0(sp)
 1004cb4:	10050400 	call	1005040 <__sinit>
 1004cb8:	d9400017 	ldw	r5,0(sp)
 1004cbc:	003ff006 	br	1004c80 <_fflush_r+0x1c>

01004cc0 <fflush>:
 1004cc0:	20000526 	beq	r4,zero,1004cd8 <fflush+0x18>
 1004cc4:	00804074 	movhi	r2,257
 1004cc8:	1086be04 	addi	r2,r2,6904
 1004ccc:	200b883a 	mov	r5,r4
 1004cd0:	11000017 	ldw	r4,0(r2)
 1004cd4:	1004c641 	jmpi	1004c64 <_fflush_r>
 1004cd8:	00804074 	movhi	r2,257
 1004cdc:	1086bd04 	addi	r2,r2,6900
 1004ce0:	11000017 	ldw	r4,0(r2)
 1004ce4:	01404034 	movhi	r5,256
 1004ce8:	29531904 	addi	r5,r5,19556
 1004cec:	1005a441 	jmpi	1005a44 <_fwalk_reent>

01004cf0 <__fp_unlock>:
 1004cf0:	0005883a 	mov	r2,zero
 1004cf4:	f800283a 	ret

01004cf8 <_cleanup_r>:
 1004cf8:	01404074 	movhi	r5,257
 1004cfc:	29669704 	addi	r5,r5,-26020
 1004d00:	1005a441 	jmpi	1005a44 <_fwalk_reent>

01004d04 <__sinit.part.1>:
 1004d04:	defff704 	addi	sp,sp,-36
 1004d08:	00c04034 	movhi	r3,256
 1004d0c:	dfc00815 	stw	ra,32(sp)
 1004d10:	ddc00715 	stw	r23,28(sp)
 1004d14:	dd800615 	stw	r22,24(sp)
 1004d18:	dd400515 	stw	r21,20(sp)
 1004d1c:	dd000415 	stw	r20,16(sp)
 1004d20:	dcc00315 	stw	r19,12(sp)
 1004d24:	dc800215 	stw	r18,8(sp)
 1004d28:	dc400115 	stw	r17,4(sp)
 1004d2c:	dc000015 	stw	r16,0(sp)
 1004d30:	18d33e04 	addi	r3,r3,19704
 1004d34:	24000117 	ldw	r16,4(r4)
 1004d38:	20c00f15 	stw	r3,60(r4)
 1004d3c:	2080bb04 	addi	r2,r4,748
 1004d40:	00c000c4 	movi	r3,3
 1004d44:	20c0b915 	stw	r3,740(r4)
 1004d48:	2080ba15 	stw	r2,744(r4)
 1004d4c:	2000b815 	stw	zero,736(r4)
 1004d50:	05c00204 	movi	r23,8
 1004d54:	00800104 	movi	r2,4
 1004d58:	2025883a 	mov	r18,r4
 1004d5c:	b80d883a 	mov	r6,r23
 1004d60:	81001704 	addi	r4,r16,92
 1004d64:	000b883a 	mov	r5,zero
 1004d68:	80000015 	stw	zero,0(r16)
 1004d6c:	80000115 	stw	zero,4(r16)
 1004d70:	80000215 	stw	zero,8(r16)
 1004d74:	8080030d 	sth	r2,12(r16)
 1004d78:	80001915 	stw	zero,100(r16)
 1004d7c:	8000038d 	sth	zero,14(r16)
 1004d80:	80000415 	stw	zero,16(r16)
 1004d84:	80000515 	stw	zero,20(r16)
 1004d88:	80000615 	stw	zero,24(r16)
 1004d8c:	10069340 	call	1006934 <memset>
 1004d90:	05804074 	movhi	r22,257
 1004d94:	94400217 	ldw	r17,8(r18)
 1004d98:	05404074 	movhi	r21,257
 1004d9c:	05004074 	movhi	r20,257
 1004da0:	04c04074 	movhi	r19,257
 1004da4:	b5a02104 	addi	r22,r22,-32636
 1004da8:	ad603804 	addi	r21,r21,-32544
 1004dac:	a5205704 	addi	r20,r20,-32420
 1004db0:	9ce06e04 	addi	r19,r19,-32328
 1004db4:	85800815 	stw	r22,32(r16)
 1004db8:	85400915 	stw	r21,36(r16)
 1004dbc:	85000a15 	stw	r20,40(r16)
 1004dc0:	84c00b15 	stw	r19,44(r16)
 1004dc4:	84000715 	stw	r16,28(r16)
 1004dc8:	00800284 	movi	r2,10
 1004dcc:	8880030d 	sth	r2,12(r17)
 1004dd0:	00800044 	movi	r2,1
 1004dd4:	b80d883a 	mov	r6,r23
 1004dd8:	89001704 	addi	r4,r17,92
 1004ddc:	000b883a 	mov	r5,zero
 1004de0:	88000015 	stw	zero,0(r17)
 1004de4:	88000115 	stw	zero,4(r17)
 1004de8:	88000215 	stw	zero,8(r17)
 1004dec:	88001915 	stw	zero,100(r17)
 1004df0:	8880038d 	sth	r2,14(r17)
 1004df4:	88000415 	stw	zero,16(r17)
 1004df8:	88000515 	stw	zero,20(r17)
 1004dfc:	88000615 	stw	zero,24(r17)
 1004e00:	10069340 	call	1006934 <memset>
 1004e04:	94000317 	ldw	r16,12(r18)
 1004e08:	00800484 	movi	r2,18
 1004e0c:	8c400715 	stw	r17,28(r17)
 1004e10:	8d800815 	stw	r22,32(r17)
 1004e14:	8d400915 	stw	r21,36(r17)
 1004e18:	8d000a15 	stw	r20,40(r17)
 1004e1c:	8cc00b15 	stw	r19,44(r17)
 1004e20:	8080030d 	sth	r2,12(r16)
 1004e24:	00800084 	movi	r2,2
 1004e28:	80000015 	stw	zero,0(r16)
 1004e2c:	80000115 	stw	zero,4(r16)
 1004e30:	80000215 	stw	zero,8(r16)
 1004e34:	80001915 	stw	zero,100(r16)
 1004e38:	8080038d 	sth	r2,14(r16)
 1004e3c:	80000415 	stw	zero,16(r16)
 1004e40:	80000515 	stw	zero,20(r16)
 1004e44:	80000615 	stw	zero,24(r16)
 1004e48:	b80d883a 	mov	r6,r23
 1004e4c:	000b883a 	mov	r5,zero
 1004e50:	81001704 	addi	r4,r16,92
 1004e54:	10069340 	call	1006934 <memset>
 1004e58:	00800044 	movi	r2,1
 1004e5c:	84000715 	stw	r16,28(r16)
 1004e60:	85800815 	stw	r22,32(r16)
 1004e64:	85400915 	stw	r21,36(r16)
 1004e68:	85000a15 	stw	r20,40(r16)
 1004e6c:	84c00b15 	stw	r19,44(r16)
 1004e70:	90800e15 	stw	r2,56(r18)
 1004e74:	dfc00817 	ldw	ra,32(sp)
 1004e78:	ddc00717 	ldw	r23,28(sp)
 1004e7c:	dd800617 	ldw	r22,24(sp)
 1004e80:	dd400517 	ldw	r21,20(sp)
 1004e84:	dd000417 	ldw	r20,16(sp)
 1004e88:	dcc00317 	ldw	r19,12(sp)
 1004e8c:	dc800217 	ldw	r18,8(sp)
 1004e90:	dc400117 	ldw	r17,4(sp)
 1004e94:	dc000017 	ldw	r16,0(sp)
 1004e98:	dec00904 	addi	sp,sp,36
 1004e9c:	f800283a 	ret

01004ea0 <__fp_lock>:
 1004ea0:	0005883a 	mov	r2,zero
 1004ea4:	f800283a 	ret

01004ea8 <__sfmoreglue>:
 1004ea8:	defffc04 	addi	sp,sp,-16
 1004eac:	dc400115 	stw	r17,4(sp)
 1004eb0:	2c7fffc4 	addi	r17,r5,-1
 1004eb4:	8c401a24 	muli	r17,r17,104
 1004eb8:	dc800215 	stw	r18,8(sp)
 1004ebc:	2825883a 	mov	r18,r5
 1004ec0:	89401d04 	addi	r5,r17,116
 1004ec4:	dc000015 	stw	r16,0(sp)
 1004ec8:	dfc00315 	stw	ra,12(sp)
 1004ecc:	1005da00 	call	1005da0 <_malloc_r>
 1004ed0:	1021883a 	mov	r16,r2
 1004ed4:	10000726 	beq	r2,zero,1004ef4 <__sfmoreglue+0x4c>
 1004ed8:	11000304 	addi	r4,r2,12
 1004edc:	10000015 	stw	zero,0(r2)
 1004ee0:	14800115 	stw	r18,4(r2)
 1004ee4:	11000215 	stw	r4,8(r2)
 1004ee8:	89801a04 	addi	r6,r17,104
 1004eec:	000b883a 	mov	r5,zero
 1004ef0:	10069340 	call	1006934 <memset>
 1004ef4:	8005883a 	mov	r2,r16
 1004ef8:	dfc00317 	ldw	ra,12(sp)
 1004efc:	dc800217 	ldw	r18,8(sp)
 1004f00:	dc400117 	ldw	r17,4(sp)
 1004f04:	dc000017 	ldw	r16,0(sp)
 1004f08:	dec00404 	addi	sp,sp,16
 1004f0c:	f800283a 	ret

01004f10 <__sfp>:
 1004f10:	defffb04 	addi	sp,sp,-20
 1004f14:	dc000015 	stw	r16,0(sp)
 1004f18:	04004074 	movhi	r16,257
 1004f1c:	8406bd04 	addi	r16,r16,6900
 1004f20:	dcc00315 	stw	r19,12(sp)
 1004f24:	2027883a 	mov	r19,r4
 1004f28:	81000017 	ldw	r4,0(r16)
 1004f2c:	dfc00415 	stw	ra,16(sp)
 1004f30:	dc800215 	stw	r18,8(sp)
 1004f34:	20800e17 	ldw	r2,56(r4)
 1004f38:	dc400115 	stw	r17,4(sp)
 1004f3c:	1000021e 	bne	r2,zero,1004f48 <__sfp+0x38>
 1004f40:	1004d040 	call	1004d04 <__sinit.part.1>
 1004f44:	81000017 	ldw	r4,0(r16)
 1004f48:	2480b804 	addi	r18,r4,736
 1004f4c:	047fffc4 	movi	r17,-1
 1004f50:	91000117 	ldw	r4,4(r18)
 1004f54:	94000217 	ldw	r16,8(r18)
 1004f58:	213fffc4 	addi	r4,r4,-1
 1004f5c:	20000a16 	blt	r4,zero,1004f88 <__sfp+0x78>
 1004f60:	8080030f 	ldh	r2,12(r16)
 1004f64:	10000c26 	beq	r2,zero,1004f98 <__sfp+0x88>
 1004f68:	80c01d04 	addi	r3,r16,116
 1004f6c:	00000206 	br	1004f78 <__sfp+0x68>
 1004f70:	18bfe60f 	ldh	r2,-104(r3)
 1004f74:	10000826 	beq	r2,zero,1004f98 <__sfp+0x88>
 1004f78:	213fffc4 	addi	r4,r4,-1
 1004f7c:	1c3ffd04 	addi	r16,r3,-12
 1004f80:	18c01a04 	addi	r3,r3,104
 1004f84:	247ffa1e 	bne	r4,r17,1004f70 <__sfp+0x60>
 1004f88:	90800017 	ldw	r2,0(r18)
 1004f8c:	10001d26 	beq	r2,zero,1005004 <__sfp+0xf4>
 1004f90:	1025883a 	mov	r18,r2
 1004f94:	003fee06 	br	1004f50 <__sfp+0x40>
 1004f98:	00bfffc4 	movi	r2,-1
 1004f9c:	8080038d 	sth	r2,14(r16)
 1004fa0:	00800044 	movi	r2,1
 1004fa4:	8080030d 	sth	r2,12(r16)
 1004fa8:	80001915 	stw	zero,100(r16)
 1004fac:	80000015 	stw	zero,0(r16)
 1004fb0:	80000215 	stw	zero,8(r16)
 1004fb4:	80000115 	stw	zero,4(r16)
 1004fb8:	80000415 	stw	zero,16(r16)
 1004fbc:	80000515 	stw	zero,20(r16)
 1004fc0:	80000615 	stw	zero,24(r16)
 1004fc4:	01800204 	movi	r6,8
 1004fc8:	000b883a 	mov	r5,zero
 1004fcc:	81001704 	addi	r4,r16,92
 1004fd0:	10069340 	call	1006934 <memset>
 1004fd4:	8005883a 	mov	r2,r16
 1004fd8:	80000c15 	stw	zero,48(r16)
 1004fdc:	80000d15 	stw	zero,52(r16)
 1004fe0:	80001115 	stw	zero,68(r16)
 1004fe4:	80001215 	stw	zero,72(r16)
 1004fe8:	dfc00417 	ldw	ra,16(sp)
 1004fec:	dcc00317 	ldw	r19,12(sp)
 1004ff0:	dc800217 	ldw	r18,8(sp)
 1004ff4:	dc400117 	ldw	r17,4(sp)
 1004ff8:	dc000017 	ldw	r16,0(sp)
 1004ffc:	dec00504 	addi	sp,sp,20
 1005000:	f800283a 	ret
 1005004:	01400104 	movi	r5,4
 1005008:	9809883a 	mov	r4,r19
 100500c:	1004ea80 	call	1004ea8 <__sfmoreglue>
 1005010:	90800015 	stw	r2,0(r18)
 1005014:	103fde1e 	bne	r2,zero,1004f90 <__sfp+0x80>
 1005018:	00800304 	movi	r2,12
 100501c:	98800015 	stw	r2,0(r19)
 1005020:	0005883a 	mov	r2,zero
 1005024:	003ff006 	br	1004fe8 <__sfp+0xd8>

01005028 <_cleanup>:
 1005028:	00804074 	movhi	r2,257
 100502c:	1086bd04 	addi	r2,r2,6900
 1005030:	11000017 	ldw	r4,0(r2)
 1005034:	01404074 	movhi	r5,257
 1005038:	29669704 	addi	r5,r5,-26020
 100503c:	1005a441 	jmpi	1005a44 <_fwalk_reent>

01005040 <__sinit>:
 1005040:	20800e17 	ldw	r2,56(r4)
 1005044:	10000126 	beq	r2,zero,100504c <__sinit+0xc>
 1005048:	f800283a 	ret
 100504c:	1004d041 	jmpi	1004d04 <__sinit.part.1>

01005050 <__sfp_lock_acquire>:
 1005050:	f800283a 	ret

01005054 <__sfp_lock_release>:
 1005054:	f800283a 	ret

01005058 <__sinit_lock_acquire>:
 1005058:	f800283a 	ret

0100505c <__sinit_lock_release>:
 100505c:	f800283a 	ret

01005060 <__fp_lock_all>:
 1005060:	00804074 	movhi	r2,257
 1005064:	1086be04 	addi	r2,r2,6904
 1005068:	11000017 	ldw	r4,0(r2)
 100506c:	01404034 	movhi	r5,256
 1005070:	2953a804 	addi	r5,r5,20128
 1005074:	10059801 	jmpi	1005980 <_fwalk>

01005078 <__fp_unlock_all>:
 1005078:	00804074 	movhi	r2,257
 100507c:	1086be04 	addi	r2,r2,6904
 1005080:	11000017 	ldw	r4,0(r2)
 1005084:	01404034 	movhi	r5,256
 1005088:	29533c04 	addi	r5,r5,19696
 100508c:	10059801 	jmpi	1005980 <_fwalk>

01005090 <_malloc_trim_r>:
 1005090:	defffb04 	addi	sp,sp,-20
 1005094:	dcc00315 	stw	r19,12(sp)
 1005098:	04c04074 	movhi	r19,257
 100509c:	dc800215 	stw	r18,8(sp)
 10050a0:	dc400115 	stw	r17,4(sp)
 10050a4:	dc000015 	stw	r16,0(sp)
 10050a8:	dfc00415 	stw	ra,16(sp)
 10050ac:	2821883a 	mov	r16,r5
 10050b0:	9cc13904 	addi	r19,r19,1252
 10050b4:	2025883a 	mov	r18,r4
 10050b8:	100dbe00 	call	100dbe0 <__malloc_lock>
 10050bc:	98800217 	ldw	r2,8(r19)
 10050c0:	14400117 	ldw	r17,4(r2)
 10050c4:	00bfff04 	movi	r2,-4
 10050c8:	88a2703a 	and	r17,r17,r2
 10050cc:	8c21c83a 	sub	r16,r17,r16
 10050d0:	8403fbc4 	addi	r16,r16,4079
 10050d4:	8020d33a 	srli	r16,r16,12
 10050d8:	0083ffc4 	movi	r2,4095
 10050dc:	843fffc4 	addi	r16,r16,-1
 10050e0:	8020933a 	slli	r16,r16,12
 10050e4:	1400060e 	bge	r2,r16,1005100 <_malloc_trim_r+0x70>
 10050e8:	000b883a 	mov	r5,zero
 10050ec:	9009883a 	mov	r4,r18
 10050f0:	10080300 	call	1008030 <_sbrk_r>
 10050f4:	98c00217 	ldw	r3,8(r19)
 10050f8:	1c47883a 	add	r3,r3,r17
 10050fc:	10c00a26 	beq	r2,r3,1005128 <_malloc_trim_r+0x98>
 1005100:	9009883a 	mov	r4,r18
 1005104:	100dc040 	call	100dc04 <__malloc_unlock>
 1005108:	0005883a 	mov	r2,zero
 100510c:	dfc00417 	ldw	ra,16(sp)
 1005110:	dcc00317 	ldw	r19,12(sp)
 1005114:	dc800217 	ldw	r18,8(sp)
 1005118:	dc400117 	ldw	r17,4(sp)
 100511c:	dc000017 	ldw	r16,0(sp)
 1005120:	dec00504 	addi	sp,sp,20
 1005124:	f800283a 	ret
 1005128:	040bc83a 	sub	r5,zero,r16
 100512c:	9009883a 	mov	r4,r18
 1005130:	10080300 	call	1008030 <_sbrk_r>
 1005134:	00ffffc4 	movi	r3,-1
 1005138:	10c00d26 	beq	r2,r3,1005170 <_malloc_trim_r+0xe0>
 100513c:	00c04074 	movhi	r3,257
 1005140:	18cd9704 	addi	r3,r3,13916
 1005144:	18800017 	ldw	r2,0(r3)
 1005148:	99000217 	ldw	r4,8(r19)
 100514c:	8c23c83a 	sub	r17,r17,r16
 1005150:	8c400054 	ori	r17,r17,1
 1005154:	1421c83a 	sub	r16,r2,r16
 1005158:	24400115 	stw	r17,4(r4)
 100515c:	9009883a 	mov	r4,r18
 1005160:	1c000015 	stw	r16,0(r3)
 1005164:	100dc040 	call	100dc04 <__malloc_unlock>
 1005168:	00800044 	movi	r2,1
 100516c:	003fe706 	br	100510c <_malloc_trim_r+0x7c>
 1005170:	000b883a 	mov	r5,zero
 1005174:	9009883a 	mov	r4,r18
 1005178:	10080300 	call	1008030 <_sbrk_r>
 100517c:	99000217 	ldw	r4,8(r19)
 1005180:	014003c4 	movi	r5,15
 1005184:	1107c83a 	sub	r3,r2,r4
 1005188:	28ffdd0e 	bge	r5,r3,1005100 <_malloc_trim_r+0x70>
 100518c:	01404074 	movhi	r5,257
 1005190:	2946c004 	addi	r5,r5,6912
 1005194:	29400017 	ldw	r5,0(r5)
 1005198:	18c00054 	ori	r3,r3,1
 100519c:	20c00115 	stw	r3,4(r4)
 10051a0:	00c04074 	movhi	r3,257
 10051a4:	1145c83a 	sub	r2,r2,r5
 10051a8:	18cd9704 	addi	r3,r3,13916
 10051ac:	18800015 	stw	r2,0(r3)
 10051b0:	003fd306 	br	1005100 <_malloc_trim_r+0x70>

010051b4 <_free_r>:
 10051b4:	28004126 	beq	r5,zero,10052bc <_free_r+0x108>
 10051b8:	defffd04 	addi	sp,sp,-12
 10051bc:	dc400115 	stw	r17,4(sp)
 10051c0:	dc000015 	stw	r16,0(sp)
 10051c4:	2023883a 	mov	r17,r4
 10051c8:	2821883a 	mov	r16,r5
 10051cc:	dfc00215 	stw	ra,8(sp)
 10051d0:	100dbe00 	call	100dbe0 <__malloc_lock>
 10051d4:	81ffff17 	ldw	r7,-4(r16)
 10051d8:	00bfff84 	movi	r2,-2
 10051dc:	01004074 	movhi	r4,257
 10051e0:	81bffe04 	addi	r6,r16,-8
 10051e4:	3884703a 	and	r2,r7,r2
 10051e8:	21013904 	addi	r4,r4,1252
 10051ec:	308b883a 	add	r5,r6,r2
 10051f0:	2a400117 	ldw	r9,4(r5)
 10051f4:	22000217 	ldw	r8,8(r4)
 10051f8:	00ffff04 	movi	r3,-4
 10051fc:	48c6703a 	and	r3,r9,r3
 1005200:	2a005726 	beq	r5,r8,1005360 <_free_r+0x1ac>
 1005204:	28c00115 	stw	r3,4(r5)
 1005208:	39c0004c 	andi	r7,r7,1
 100520c:	3800091e 	bne	r7,zero,1005234 <_free_r+0x80>
 1005210:	823ffe17 	ldw	r8,-8(r16)
 1005214:	22400204 	addi	r9,r4,8
 1005218:	320dc83a 	sub	r6,r6,r8
 100521c:	31c00217 	ldw	r7,8(r6)
 1005220:	1205883a 	add	r2,r2,r8
 1005224:	3a406526 	beq	r7,r9,10053bc <_free_r+0x208>
 1005228:	32000317 	ldw	r8,12(r6)
 100522c:	3a000315 	stw	r8,12(r7)
 1005230:	41c00215 	stw	r7,8(r8)
 1005234:	28cf883a 	add	r7,r5,r3
 1005238:	39c00117 	ldw	r7,4(r7)
 100523c:	39c0004c 	andi	r7,r7,1
 1005240:	38003a26 	beq	r7,zero,100532c <_free_r+0x178>
 1005244:	10c00054 	ori	r3,r2,1
 1005248:	30c00115 	stw	r3,4(r6)
 100524c:	3087883a 	add	r3,r6,r2
 1005250:	18800015 	stw	r2,0(r3)
 1005254:	00c07fc4 	movi	r3,511
 1005258:	18801936 	bltu	r3,r2,10052c0 <_free_r+0x10c>
 100525c:	1004d0fa 	srli	r2,r2,3
 1005260:	01c00044 	movi	r7,1
 1005264:	21400117 	ldw	r5,4(r4)
 1005268:	10c00044 	addi	r3,r2,1
 100526c:	18c7883a 	add	r3,r3,r3
 1005270:	1005d0ba 	srai	r2,r2,2
 1005274:	18c7883a 	add	r3,r3,r3
 1005278:	18c7883a 	add	r3,r3,r3
 100527c:	1907883a 	add	r3,r3,r4
 1005280:	3884983a 	sll	r2,r7,r2
 1005284:	19c00017 	ldw	r7,0(r3)
 1005288:	1a3ffe04 	addi	r8,r3,-8
 100528c:	1144b03a 	or	r2,r2,r5
 1005290:	32000315 	stw	r8,12(r6)
 1005294:	31c00215 	stw	r7,8(r6)
 1005298:	20800115 	stw	r2,4(r4)
 100529c:	19800015 	stw	r6,0(r3)
 10052a0:	39800315 	stw	r6,12(r7)
 10052a4:	8809883a 	mov	r4,r17
 10052a8:	dfc00217 	ldw	ra,8(sp)
 10052ac:	dc400117 	ldw	r17,4(sp)
 10052b0:	dc000017 	ldw	r16,0(sp)
 10052b4:	dec00304 	addi	sp,sp,12
 10052b8:	100dc041 	jmpi	100dc04 <__malloc_unlock>
 10052bc:	f800283a 	ret
 10052c0:	100ad27a 	srli	r5,r2,9
 10052c4:	00c00104 	movi	r3,4
 10052c8:	19404a36 	bltu	r3,r5,10053f4 <_free_r+0x240>
 10052cc:	100ad1ba 	srli	r5,r2,6
 10052d0:	28c00e44 	addi	r3,r5,57
 10052d4:	18c7883a 	add	r3,r3,r3
 10052d8:	29400e04 	addi	r5,r5,56
 10052dc:	18c7883a 	add	r3,r3,r3
 10052e0:	18c7883a 	add	r3,r3,r3
 10052e4:	1909883a 	add	r4,r3,r4
 10052e8:	20c00017 	ldw	r3,0(r4)
 10052ec:	01c04074 	movhi	r7,257
 10052f0:	213ffe04 	addi	r4,r4,-8
 10052f4:	39c13904 	addi	r7,r7,1252
 10052f8:	20c04426 	beq	r4,r3,100540c <_free_r+0x258>
 10052fc:	01ffff04 	movi	r7,-4
 1005300:	19400117 	ldw	r5,4(r3)
 1005304:	29ca703a 	and	r5,r5,r7
 1005308:	1140022e 	bgeu	r2,r5,1005314 <_free_r+0x160>
 100530c:	18c00217 	ldw	r3,8(r3)
 1005310:	20fffb1e 	bne	r4,r3,1005300 <_free_r+0x14c>
 1005314:	19000317 	ldw	r4,12(r3)
 1005318:	31000315 	stw	r4,12(r6)
 100531c:	30c00215 	stw	r3,8(r6)
 1005320:	21800215 	stw	r6,8(r4)
 1005324:	19800315 	stw	r6,12(r3)
 1005328:	003fde06 	br	10052a4 <_free_r+0xf0>
 100532c:	29c00217 	ldw	r7,8(r5)
 1005330:	10c5883a 	add	r2,r2,r3
 1005334:	00c04074 	movhi	r3,257
 1005338:	18c13b04 	addi	r3,r3,1260
 100533c:	38c03b26 	beq	r7,r3,100542c <_free_r+0x278>
 1005340:	2a000317 	ldw	r8,12(r5)
 1005344:	11400054 	ori	r5,r2,1
 1005348:	3087883a 	add	r3,r6,r2
 100534c:	3a000315 	stw	r8,12(r7)
 1005350:	41c00215 	stw	r7,8(r8)
 1005354:	31400115 	stw	r5,4(r6)
 1005358:	18800015 	stw	r2,0(r3)
 100535c:	003fbd06 	br	1005254 <_free_r+0xa0>
 1005360:	39c0004c 	andi	r7,r7,1
 1005364:	10c5883a 	add	r2,r2,r3
 1005368:	3800071e 	bne	r7,zero,1005388 <_free_r+0x1d4>
 100536c:	81fffe17 	ldw	r7,-8(r16)
 1005370:	31cdc83a 	sub	r6,r6,r7
 1005374:	30c00317 	ldw	r3,12(r6)
 1005378:	31400217 	ldw	r5,8(r6)
 100537c:	11c5883a 	add	r2,r2,r7
 1005380:	28c00315 	stw	r3,12(r5)
 1005384:	19400215 	stw	r5,8(r3)
 1005388:	10c00054 	ori	r3,r2,1
 100538c:	30c00115 	stw	r3,4(r6)
 1005390:	00c04074 	movhi	r3,257
 1005394:	18c6c104 	addi	r3,r3,6916
 1005398:	18c00017 	ldw	r3,0(r3)
 100539c:	21800215 	stw	r6,8(r4)
 10053a0:	10ffc036 	bltu	r2,r3,10052a4 <_free_r+0xf0>
 10053a4:	00804074 	movhi	r2,257
 10053a8:	108d8e04 	addi	r2,r2,13880
 10053ac:	11400017 	ldw	r5,0(r2)
 10053b0:	8809883a 	mov	r4,r17
 10053b4:	10050900 	call	1005090 <_malloc_trim_r>
 10053b8:	003fba06 	br	10052a4 <_free_r+0xf0>
 10053bc:	28c9883a 	add	r4,r5,r3
 10053c0:	21000117 	ldw	r4,4(r4)
 10053c4:	2100004c 	andi	r4,r4,1
 10053c8:	2000391e 	bne	r4,zero,10054b0 <_free_r+0x2fc>
 10053cc:	29c00217 	ldw	r7,8(r5)
 10053d0:	29000317 	ldw	r4,12(r5)
 10053d4:	1885883a 	add	r2,r3,r2
 10053d8:	10c00054 	ori	r3,r2,1
 10053dc:	39000315 	stw	r4,12(r7)
 10053e0:	21c00215 	stw	r7,8(r4)
 10053e4:	30c00115 	stw	r3,4(r6)
 10053e8:	308d883a 	add	r6,r6,r2
 10053ec:	30800015 	stw	r2,0(r6)
 10053f0:	003fac06 	br	10052a4 <_free_r+0xf0>
 10053f4:	00c00504 	movi	r3,20
 10053f8:	19401536 	bltu	r3,r5,1005450 <_free_r+0x29c>
 10053fc:	28c01704 	addi	r3,r5,92
 1005400:	18c7883a 	add	r3,r3,r3
 1005404:	294016c4 	addi	r5,r5,91
 1005408:	003fb406 	br	10052dc <_free_r+0x128>
 100540c:	280bd0ba 	srai	r5,r5,2
 1005410:	00c00044 	movi	r3,1
 1005414:	38800117 	ldw	r2,4(r7)
 1005418:	194a983a 	sll	r5,r3,r5
 100541c:	2007883a 	mov	r3,r4
 1005420:	2884b03a 	or	r2,r5,r2
 1005424:	38800115 	stw	r2,4(r7)
 1005428:	003fbb06 	br	1005318 <_free_r+0x164>
 100542c:	21800515 	stw	r6,20(r4)
 1005430:	21800415 	stw	r6,16(r4)
 1005434:	10c00054 	ori	r3,r2,1
 1005438:	31c00315 	stw	r7,12(r6)
 100543c:	31c00215 	stw	r7,8(r6)
 1005440:	30c00115 	stw	r3,4(r6)
 1005444:	308d883a 	add	r6,r6,r2
 1005448:	30800015 	stw	r2,0(r6)
 100544c:	003f9506 	br	10052a4 <_free_r+0xf0>
 1005450:	00c01504 	movi	r3,84
 1005454:	19400536 	bltu	r3,r5,100546c <_free_r+0x2b8>
 1005458:	100ad33a 	srli	r5,r2,12
 100545c:	28c01bc4 	addi	r3,r5,111
 1005460:	18c7883a 	add	r3,r3,r3
 1005464:	29401b84 	addi	r5,r5,110
 1005468:	003f9c06 	br	10052dc <_free_r+0x128>
 100546c:	00c05504 	movi	r3,340
 1005470:	19400536 	bltu	r3,r5,1005488 <_free_r+0x2d4>
 1005474:	100ad3fa 	srli	r5,r2,15
 1005478:	28c01e04 	addi	r3,r5,120
 100547c:	18c7883a 	add	r3,r3,r3
 1005480:	29401dc4 	addi	r5,r5,119
 1005484:	003f9506 	br	10052dc <_free_r+0x128>
 1005488:	00c15504 	movi	r3,1364
 100548c:	19400536 	bltu	r3,r5,10054a4 <_free_r+0x2f0>
 1005490:	100ad4ba 	srli	r5,r2,18
 1005494:	28c01f44 	addi	r3,r5,125
 1005498:	18c7883a 	add	r3,r3,r3
 100549c:	29401f04 	addi	r5,r5,124
 10054a0:	003f8e06 	br	10052dc <_free_r+0x128>
 10054a4:	00c03f84 	movi	r3,254
 10054a8:	01401f84 	movi	r5,126
 10054ac:	003f8b06 	br	10052dc <_free_r+0x128>
 10054b0:	10c00054 	ori	r3,r2,1
 10054b4:	30c00115 	stw	r3,4(r6)
 10054b8:	308d883a 	add	r6,r6,r2
 10054bc:	30800015 	stw	r2,0(r6)
 10054c0:	003f7806 	br	10052a4 <_free_r+0xf0>

010054c4 <__sfvwrite_r>:
 10054c4:	30800217 	ldw	r2,8(r6)
 10054c8:	10006726 	beq	r2,zero,1005668 <__sfvwrite_r+0x1a4>
 10054cc:	28c0030b 	ldhu	r3,12(r5)
 10054d0:	defff404 	addi	sp,sp,-48
 10054d4:	dd400715 	stw	r21,28(sp)
 10054d8:	dd000615 	stw	r20,24(sp)
 10054dc:	dc000215 	stw	r16,8(sp)
 10054e0:	dfc00b15 	stw	ra,44(sp)
 10054e4:	df000a15 	stw	fp,40(sp)
 10054e8:	ddc00915 	stw	r23,36(sp)
 10054ec:	dd800815 	stw	r22,32(sp)
 10054f0:	dcc00515 	stw	r19,20(sp)
 10054f4:	dc800415 	stw	r18,16(sp)
 10054f8:	dc400315 	stw	r17,12(sp)
 10054fc:	1880020c 	andi	r2,r3,8
 1005500:	2821883a 	mov	r16,r5
 1005504:	202b883a 	mov	r21,r4
 1005508:	3029883a 	mov	r20,r6
 100550c:	10002726 	beq	r2,zero,10055ac <__sfvwrite_r+0xe8>
 1005510:	28800417 	ldw	r2,16(r5)
 1005514:	10002526 	beq	r2,zero,10055ac <__sfvwrite_r+0xe8>
 1005518:	1880008c 	andi	r2,r3,2
 100551c:	a4400017 	ldw	r17,0(r20)
 1005520:	10002a26 	beq	r2,zero,10055cc <__sfvwrite_r+0x108>
 1005524:	05a00034 	movhi	r22,32768
 1005528:	0027883a 	mov	r19,zero
